ARM GAS  C:\Users\anhqu\AppData\Local\Temp\ccsMGc75.s 			page 1


   1              		.cpu arm7tdmi
   2              		.eabi_attribute 20, 1
   3              		.eabi_attribute 21, 1
   4              		.eabi_attribute 23, 3
   5              		.eabi_attribute 24, 1
   6              		.eabi_attribute 25, 1
   7              		.eabi_attribute 26, 1
   8              		.eabi_attribute 30, 6
   9              		.eabi_attribute 34, 0
  10              		.eabi_attribute 18, 4
  11              		.file	"bigAdd.cpp"
  12              		.text
  13              	.Ltext0:
  14              		.cfi_sections	.debug_frame
  15              		.section	.rodata
  16              		.align	2
  17              		.type	_ZStL19piecewise_construct, %object
  18              		.size	_ZStL19piecewise_construct, 1
  19              	_ZStL19piecewise_construct:
  20 0000 00       		.space	1
  21              		.global	_ZN10primitives5carryE
  22              		.bss
  23              		.align	2
  24              		.type	_ZN10primitives5carryE, %object
  25              		.size	_ZN10primitives5carryE, 4
  26              	_ZN10primitives5carryE:
  27 0000 00000000 		.space	4
  28              		.section	.text._ZN10primitives9primitiveIjvEC2IjvEERKT_,"axG",%progbits,_ZN10primitives9primitiveI
  29              		.align	2
  30              		.weak	_ZN10primitives9primitiveIjvEC2IjvEERKT_
  31              		.syntax unified
  32              		.arm
  33              		.fpu softvfp
  34              		.type	_ZN10primitives9primitiveIjvEC2IjvEERKT_, %function
  35              	_ZN10primitives9primitiveIjvEC2IjvEERKT_:
  36              		.fnstart
  37              	.LFB912:
  38              		.file 1 "primitive.hpp"
   1:primitive.hpp **** #ifndef PRIMITIVE_HPP
   2:primitive.hpp **** #define PRIMITIVE_HPP
   3:primitive.hpp **** 
   4:primitive.hpp **** #include "arithmetic_traits.h"
   5:primitive.hpp **** #include <iosfwd>
   6:primitive.hpp **** 
   7:primitive.hpp **** namespace primitives {
   8:primitive.hpp **** 
   9:primitive.hpp **** template<typename T, typename = std::enable_if_t< std::is_arithmetic<T>::value >>
  10:primitive.hpp **** class primitive /* final */ { // final removed to allow derived classes
  11:primitive.hpp **** protected: // protected for use by derived classes
  12:primitive.hpp ****     T m_value;
  13:primitive.hpp **** 
  14:primitive.hpp **** public:
  15:primitive.hpp ****     using value_type = T;
  16:primitive.hpp **** 
  17:primitive.hpp ****     constexpr primitive() noexcept: m_value() {}
  18:primitive.hpp **** 
  19:primitive.hpp ****     template<typename U, typename = std::enable_if_t<
ARM GAS  C:\Users\anhqu\AppData\Local\Temp\ccsMGc75.s 			page 2


  20:primitive.hpp ****          std::is_same<T, U>::value || is_promotion<U, T>::value
  21:primitive.hpp ****     >>
  22:primitive.hpp ****     constexpr primitive(U const& value) noexcept : m_value(value) {}
  39              		.loc 1 22 0
  40              		.cfi_startproc
  41              		@ Function supports interworking.
  42              		@ args = 0, pretend = 0, frame = 8
  43              		@ frame_needed = 0, uses_anonymous_args = 0
  44              		@ link register save eliminated.
  45 0000 08D04DE2 		sub	sp, sp, #8
  46              	.LCFI0:
  47              		.cfi_def_cfa_offset 8
  48 0004 04008DE5 		str	r0, [sp, #4]
  49 0008 00108DE5 		str	r1, [sp]
  50              	.LBB2:
  51              		.loc 1 22 0
  52 000c 00309DE5 		ldr	r3, [sp]
  53 0010 002093E5 		ldr	r2, [r3]
  54 0014 04309DE5 		ldr	r3, [sp, #4]
  55 0018 002083E5 		str	r2, [r3]
  56              	.LBE2:
  57 001c 04309DE5 		ldr	r3, [sp, #4]
  58 0020 0300A0E1 		mov	r0, r3
  59 0024 08D08DE2 		add	sp, sp, #8
  60              	.LCFI1:
  61              		.cfi_def_cfa_offset 0
  62              		@ sp needed
  63 0028 1EFF2FE1 		bx	lr
  64              		.cfi_endproc
  65              	.LFE912:
  66              		.cantunwind
  67              		.fnend
  68              		.size	_ZN10primitives9primitiveIjvEC2IjvEERKT_, .-_ZN10primitives9primitiveIjvEC2IjvEERKT_
  69              		.section	.text._ZN10primitives17carried_primitiveC1IjvEERKT_,"axG",%progbits,_ZN10primitives17carr
  70              		.align	2
  71              		.weak	_ZN10primitives17carried_primitiveC1IjvEERKT_
  72              		.syntax unified
  73              		.arm
  74              		.fpu softvfp
  75              		.type	_ZN10primitives17carried_primitiveC1IjvEERKT_, %function
  76              	_ZN10primitives17carried_primitiveC1IjvEERKT_:
  77              		.fnstart
  78              	.LFB915:
  79              		.file 2 "carried_primitive.hpp"
   1:carried_primitive.hpp **** // Copyright (c) Craig Scratchley 2020   wcs (AT) sfu (DOT) ca
   2:carried_primitive.hpp **** 
   3:carried_primitive.hpp **** #ifndef CARRIED_PRIMITIVE_HPP
   4:carried_primitive.hpp **** #define CARRIED_PRIMITIVE_HPP
   5:carried_primitive.hpp **** 
   6:carried_primitive.hpp **** #include "primitive.hpp"
   7:carried_primitive.hpp **** 
   8:carried_primitive.hpp **** namespace primitives {
   9:carried_primitive.hpp **** 	
  10:carried_primitive.hpp **** // We want a single carry flag for the whole program as we are simulating the processor's carry fla
  11:carried_primitive.hpp **** // This flag is not initialized, as a processor's carry flag may be unknown when a program starts
  12:carried_primitive.hpp **** /* extern */ unsigned carry; // does this need to go in a separate file?
  13:carried_primitive.hpp **** 
ARM GAS  C:\Users\anhqu\AppData\Local\Temp\ccsMGc75.s 			page 3


  14:carried_primitive.hpp **** // carried_primitive allows arithmetic operations on unsigned ints to update a global carry variabl
  15:carried_primitive.hpp **** 	// simulating a processor's carry flag.
  16:carried_primitive.hpp **** 	class carried_primitive : public primitive<unsigned> {
  17:carried_primitive.hpp **** 
  18:carried_primitive.hpp **** public:
  19:carried_primitive.hpp **** 	    template<typename U, typename = std::enable_if_t<
  20:carried_primitive.hpp **** 	         std::is_same<unsigned, U>::value || is_promotion<U, unsigned>::value
  21:carried_primitive.hpp **** 	    >>
  22:carried_primitive.hpp **** 	    constexpr carried_primitive(U const& value) noexcept : primitive<unsigned>(value) {}
  80              		.loc 2 22 0
  81              		.cfi_startproc
  82              		@ Function supports interworking.
  83              		@ args = 0, pretend = 0, frame = 8
  84              		@ frame_needed = 0, uses_anonymous_args = 0
  85 0000 04E02DE5 		str	lr, [sp, #-4]!
  86              	.LCFI2:
  87              		.cfi_def_cfa_offset 4
  88              		.cfi_offset 14, -4
  89 0004 0CD04DE2 		sub	sp, sp, #12
  90              	.LCFI3:
  91              		.cfi_def_cfa_offset 16
  92 0008 04008DE5 		str	r0, [sp, #4]
  93 000c 00108DE5 		str	r1, [sp]
  94              	.LBB3:
  95              		.loc 2 22 0
  96 0010 04309DE5 		ldr	r3, [sp, #4]
  97 0014 00109DE5 		ldr	r1, [sp]
  98 0018 0300A0E1 		mov	r0, r3
  99 001c FEFFFFEB 		bl	_ZN10primitives9primitiveIjvEC2IjvEERKT_
 100              	.LBE3:
 101 0020 04309DE5 		ldr	r3, [sp, #4]
 102 0024 0300A0E1 		mov	r0, r3
 103 0028 0CD08DE2 		add	sp, sp, #12
 104              	.LCFI4:
 105              		.cfi_def_cfa_offset 4
 106              		@ sp needed
 107 002c 04E09DE4 		ldr	lr, [sp], #4
 108              	.LCFI5:
 109              		.cfi_restore 14
 110              		.cfi_def_cfa_offset 0
 111 0030 1EFF2FE1 		bx	lr
 112              		.cfi_endproc
 113              	.LFE915:
 114              		.cantunwind
 115              		.fnend
 116              		.size	_ZN10primitives17carried_primitiveC1IjvEERKT_, .-_ZN10primitives17carried_primitiveC1IjvEERK
 117              		.section	.text._ZN10primitives17carried_primitivepLERKj,"axG",%progbits,_ZN10primitives17carried_p
 118              		.align	2
 119              		.weak	_ZN10primitives17carried_primitivepLERKj
 120              		.syntax unified
 121              		.arm
 122              		.fpu softvfp
 123              		.type	_ZN10primitives17carried_primitivepLERKj, %function
 124              	_ZN10primitives17carried_primitivepLERKj:
 125              		.fnstart
 126              	.LFB916:
  23:carried_primitive.hpp **** 
ARM GAS  C:\Users\anhqu\AppData\Local\Temp\ccsMGc75.s 			page 4


  24:carried_primitive.hpp **** 		carried_primitive& operator++() noexcept {
  25:carried_primitive.hpp **** 			++primitive<unsigned>::m_value;
  26:carried_primitive.hpp **** 			carry = primitive<unsigned>::m_value == 0;
  27:carried_primitive.hpp **** 			return *this;
  28:carried_primitive.hpp **** 		}
  29:carried_primitive.hpp **** 		carried_primitive operator++(int) noexcept {
  30:carried_primitive.hpp **** 			auto result = carried_primitive(primitive<unsigned>::m_value++);
  31:carried_primitive.hpp **** 			carry = primitive<unsigned>::m_value == 0;  // is this correct?
  32:carried_primitive.hpp **** 			return result;
  33:carried_primitive.hpp **** 		}
  34:carried_primitive.hpp **** 
  35:carried_primitive.hpp **** //    template<typename U> // U could be another unsigned type, like unsigned char or unsigned shor
  36:carried_primitive.hpp ****     carried_primitive& operator+=(unsigned const& other) noexcept {
 127              		.loc 2 36 0
 128              		.cfi_startproc
 129              		@ Function supports interworking.
 130              		@ args = 0, pretend = 0, frame = 8
 131              		@ frame_needed = 0, uses_anonymous_args = 0
 132              		@ link register save eliminated.
 133 0000 08D04DE2 		sub	sp, sp, #8
 134              	.LCFI6:
 135              		.cfi_def_cfa_offset 8
 136 0004 04008DE5 		str	r0, [sp, #4]
 137 0008 00108DE5 		str	r1, [sp]
  37:carried_primitive.hpp **** 			// we should be able to deal with any allowable type for other
  38:carried_primitive.hpp ****     	primitive<unsigned>::m_value += other;
 138              		.loc 2 38 0
 139 000c 04309DE5 		ldr	r3, [sp, #4]
 140 0010 002093E5 		ldr	r2, [r3]
 141 0014 00309DE5 		ldr	r3, [sp]
 142 0018 003093E5 		ldr	r3, [r3]
 143 001c 032082E0 		add	r2, r2, r3
 144 0020 04309DE5 		ldr	r3, [sp, #4]
 145 0024 002083E5 		str	r2, [r3]
  39:carried_primitive.hpp **** //	   primitive<unsigned>::operator+=(other);
  40:carried_primitive.hpp **** 	   carry = primitive<unsigned>::m_value < other;
 146              		.loc 2 40 0
 147 0028 04309DE5 		ldr	r3, [sp, #4]
 148 002c 002093E5 		ldr	r2, [r3]
 149 0030 00309DE5 		ldr	r3, [sp]
 150 0034 003093E5 		ldr	r3, [r3]
 151 0038 030052E1 		cmp	r2, r3
 152 003c 0130A033 		movcc	r3, #1
 153 0040 0030A023 		movcs	r3, #0
 154 0044 FF3003E2 		and	r3, r3, #255
 155 0048 0320A0E1 		mov	r2, r3
 156 004c 10309FE5 		ldr	r3, .L7
 157 0050 002083E5 		str	r2, [r3]
  41:carried_primitive.hpp **** 	   return *this;
 158              		.loc 2 41 0
 159 0054 04309DE5 		ldr	r3, [sp, #4]
  42:carried_primitive.hpp ****     }
 160              		.loc 2 42 0
 161 0058 0300A0E1 		mov	r0, r3
 162 005c 08D08DE2 		add	sp, sp, #8
 163              	.LCFI7:
 164              		.cfi_def_cfa_offset 0
ARM GAS  C:\Users\anhqu\AppData\Local\Temp\ccsMGc75.s 			page 5


 165              		@ sp needed
 166 0060 1EFF2FE1 		bx	lr
 167              	.L8:
 168              		.align	2
 169              	.L7:
 170 0064 00000000 		.word	_ZN10primitives5carryE
 171              		.cfi_endproc
 172              	.LFE916:
 173              		.cantunwind
 174              		.fnend
 175              		.size	_ZN10primitives17carried_primitivepLERKj, .-_ZN10primitives17carried_primitivepLERKj
 176              		.section	.text._ZNK10primitives9primitiveIjvE3getEv,"axG",%progbits,_ZNK10primitives9primitiveIjvE
 177              		.align	2
 178              		.weak	_ZNK10primitives9primitiveIjvE3getEv
 179              		.syntax unified
 180              		.arm
 181              		.fpu softvfp
 182              		.type	_ZNK10primitives9primitiveIjvE3getEv, %function
 183              	_ZNK10primitives9primitiveIjvE3getEv:
 184              		.fnstart
 185              	.LFB918:
  23:primitive.hpp **** 
  24:primitive.hpp ****     template<typename U, typename = std::enable_if_t< is_promotion<U, T>::value >>
  25:primitive.hpp ****     constexpr primitive(primitive<U> const& other) noexcept : m_value(other.get()) {}
  26:primitive.hpp **** 
  27:primitive.hpp ****     template<typename U, typename = std::enable_if_t< is_conversion<U, T>::value >>
  28:primitive.hpp ****     constexpr static primitive from(U const& other) noexcept {
  29:primitive.hpp ****         return primitive(T(other));
  30:primitive.hpp ****     }
  31:primitive.hpp **** 
  32:primitive.hpp ****     primitive(primitive const&) = default;
  33:primitive.hpp ****     primitive(primitive &&) = default;
  34:primitive.hpp **** 
  35:primitive.hpp ****     primitive& operator=(primitive const&) = default;
  36:primitive.hpp ****     primitive& operator=(primitive &&) = default;
  37:primitive.hpp **** 
  38:primitive.hpp ****     constexpr T const& get() const noexcept { return m_value; }
 186              		.loc 1 38 0
 187              		.cfi_startproc
 188              		@ Function supports interworking.
 189              		@ args = 0, pretend = 0, frame = 8
 190              		@ frame_needed = 0, uses_anonymous_args = 0
 191              		@ link register save eliminated.
 192 0000 08D04DE2 		sub	sp, sp, #8
 193              	.LCFI8:
 194              		.cfi_def_cfa_offset 8
 195 0004 04008DE5 		str	r0, [sp, #4]
 196              		.loc 1 38 0
 197 0008 04309DE5 		ldr	r3, [sp, #4]
 198 000c 0300A0E1 		mov	r0, r3
 199 0010 08D08DE2 		add	sp, sp, #8
 200              	.LCFI9:
 201              		.cfi_def_cfa_offset 0
 202              		@ sp needed
 203 0014 1EFF2FE1 		bx	lr
 204              		.cfi_endproc
 205              	.LFE918:
ARM GAS  C:\Users\anhqu\AppData\Local\Temp\ccsMGc75.s 			page 6


 206              		.cantunwind
 207              		.fnend
 208              		.size	_ZNK10primitives9primitiveIjvE3getEv, .-_ZNK10primitives9primitiveIjvE3getEv
 209              		.section	.text._ZN10primitives17carried_primitivepLERKS0_,"axG",%progbits,_ZN10primitives17carried
 210              		.align	2
 211              		.weak	_ZN10primitives17carried_primitivepLERKS0_
 212              		.syntax unified
 213              		.arm
 214              		.fpu softvfp
 215              		.type	_ZN10primitives17carried_primitivepLERKS0_, %function
 216              	_ZN10primitives17carried_primitivepLERKS0_:
 217              		.fnstart
 218              	.LFB917:
  43:carried_primitive.hpp ****     carried_primitive& operator+=(carried_primitive const& other) noexcept {
 219              		.loc 2 43 0
 220              		.cfi_startproc
 221              		@ Function supports interworking.
 222              		@ args = 0, pretend = 0, frame = 8
 223              		@ frame_needed = 0, uses_anonymous_args = 0
 224 0000 10402DE9 		push	{r4, lr}
 225              	.LCFI10:
 226              		.cfi_def_cfa_offset 8
 227              		.cfi_offset 4, -8
 228              		.cfi_offset 14, -4
 229 0004 08D04DE2 		sub	sp, sp, #8
 230              	.LCFI11:
 231              		.cfi_def_cfa_offset 16
 232 0008 04008DE5 		str	r0, [sp, #4]
 233 000c 00108DE5 		str	r1, [sp]
  44:carried_primitive.hpp ****     	primitive<unsigned>::m_value += other.get();
 234              		.loc 2 44 0
 235 0010 00309DE5 		ldr	r3, [sp]
 236 0014 0300A0E1 		mov	r0, r3
 237 0018 FEFFFFEB 		bl	_ZNK10primitives9primitiveIjvE3getEv
 238 001c 0030A0E1 		mov	r3, r0
 239 0020 003093E5 		ldr	r3, [r3]
 240 0024 04209DE5 		ldr	r2, [sp, #4]
 241 0028 002092E5 		ldr	r2, [r2]
 242 002c 032082E0 		add	r2, r2, r3
 243 0030 04309DE5 		ldr	r3, [sp, #4]
 244 0034 002083E5 		str	r2, [r3]
  45:carried_primitive.hpp ****     	carry = primitive<unsigned>::m_value < other.get();
 245              		.loc 2 45 0
 246 0038 04309DE5 		ldr	r3, [sp, #4]
 247 003c 004093E5 		ldr	r4, [r3]
 248 0040 00309DE5 		ldr	r3, [sp]
 249 0044 0300A0E1 		mov	r0, r3
 250 0048 FEFFFFEB 		bl	_ZNK10primitives9primitiveIjvE3getEv
 251 004c 0030A0E1 		mov	r3, r0
 252 0050 003093E5 		ldr	r3, [r3]
 253 0054 030054E1 		cmp	r4, r3
 254 0058 0130A033 		movcc	r3, #1
 255 005c 0030A023 		movcs	r3, #0
 256 0060 FF3003E2 		and	r3, r3, #255
 257 0064 0320A0E1 		mov	r2, r3
 258 0068 14309FE5 		ldr	r3, .L13
 259 006c 002083E5 		str	r2, [r3]
ARM GAS  C:\Users\anhqu\AppData\Local\Temp\ccsMGc75.s 			page 7


  46:carried_primitive.hpp ****         return *this;
 260              		.loc 2 46 0
 261 0070 04309DE5 		ldr	r3, [sp, #4]
  47:carried_primitive.hpp ****     }
 262              		.loc 2 47 0
 263 0074 0300A0E1 		mov	r0, r3
 264 0078 08D08DE2 		add	sp, sp, #8
 265              	.LCFI12:
 266              		.cfi_def_cfa_offset 8
 267              		@ sp needed
 268 007c 1040BDE8 		pop	{r4, lr}
 269              	.LCFI13:
 270              		.cfi_restore 14
 271              		.cfi_restore 4
 272              		.cfi_def_cfa_offset 0
 273 0080 1EFF2FE1 		bx	lr
 274              	.L14:
 275              		.align	2
 276              	.L13:
 277 0084 00000000 		.word	_ZN10primitives5carryE
 278              		.cfi_endproc
 279              	.LFE917:
 280              		.cantunwind
 281              		.fnend
 282              		.size	_ZN10primitives17carried_primitivepLERKS0_, .-_ZN10primitives17carried_primitivepLERKS0_
 283              		.section	.text._ZN10primitivesltIjEEbRKNS_9primitiveIT_NSt9enable_ifIXsrSt13is_arithmeticIS2_E5val
 284              		.align	2
 285              		.weak	_ZN10primitivesltIjEEbRKNS_9primitiveIT_NSt9enable_ifIXsrSt13is_arithmeticIS2_E5valueEvE4typ
 286              		.syntax unified
 287              		.arm
 288              		.fpu softvfp
 289              		.type	_ZN10primitivesltIjEEbRKNS_9primitiveIT_NSt9enable_ifIXsrSt13is_arithmeticIS2_E5valueEvE4typ
 290              	_ZN10primitivesltIjEEbRKNS_9primitiveIT_NSt9enable_ifIXsrSt13is_arithmeticIS2_E5valueEvE4typeEEERKS
 291              		.fnstart
 292              	.LFB920:
  39:primitive.hpp **** 
  40:primitive.hpp ****     template<typename U = T, typename = std::enable_if_t< !std::is_same<U, bool>::value  >>
  41:primitive.hpp ****     constexpr primitive const& operator+() const noexcept {
  42:primitive.hpp ****         return *this;
  43:primitive.hpp ****     }
  44:primitive.hpp ****     template<typename U = T, typename = std::enable_if_t< !std::is_same<U, bool>::value  >>
  45:primitive.hpp ****     constexpr primitive operator-() const noexcept {
  46:primitive.hpp ****         return primitive(-m_value);
  47:primitive.hpp ****     }
  48:primitive.hpp **** 
  49:primitive.hpp ****     template<typename U = T, typename = std::enable_if_t< std::is_integral<U>::value && !std::is_sa
  50:primitive.hpp ****     constexpr primitive operator~() const noexcept {
  51:primitive.hpp ****         return primitive(~m_value);
  52:primitive.hpp ****     }
  53:primitive.hpp **** 
  54:primitive.hpp ****     template<typename U = T, typename = std::enable_if_t< std::is_same<U, bool>::value >>
  55:primitive.hpp ****     constexpr bool operator!() const noexcept {
  56:primitive.hpp ****         return !m_value;
  57:primitive.hpp ****     }
  58:primitive.hpp **** 
  59:primitive.hpp ****     primitive& operator++() noexcept {
  60:primitive.hpp ****         ++m_value;
ARM GAS  C:\Users\anhqu\AppData\Local\Temp\ccsMGc75.s 			page 8


  61:primitive.hpp ****         return *this;
  62:primitive.hpp ****     }
  63:primitive.hpp ****     primitive operator++(int) noexcept {
  64:primitive.hpp ****         return primitive(m_value++);
  65:primitive.hpp ****     }
  66:primitive.hpp **** 
  67:primitive.hpp ****     primitive& operator--() noexcept {
  68:primitive.hpp ****         --m_value;
  69:primitive.hpp ****         return *this;
  70:primitive.hpp ****     }
  71:primitive.hpp ****     primitive operator--(int) noexcept {
  72:primitive.hpp ****         return primitive(m_value--);
  73:primitive.hpp ****     }
  74:primitive.hpp **** 
  75:primitive.hpp ****     template<typename U>
  76:primitive.hpp ****     primitive& operator+=(U const& other) noexcept {
  77:primitive.hpp ****         m_value += other;
  78:primitive.hpp ****         return *this;
  79:primitive.hpp ****     }
  80:primitive.hpp ****     template<typename U>
  81:primitive.hpp ****     primitive& operator+=(primitive<U> const& other) noexcept {
  82:primitive.hpp ****         m_value += other.get();
  83:primitive.hpp ****         return *this;
  84:primitive.hpp ****     }
  85:primitive.hpp **** 
  86:primitive.hpp ****     template<typename U>
  87:primitive.hpp ****     primitive& operator-=(U const& other) noexcept {
  88:primitive.hpp ****         m_value -= other;
  89:primitive.hpp ****         return *this;
  90:primitive.hpp ****     }
  91:primitive.hpp ****     template<typename U>
  92:primitive.hpp ****     primitive& operator-=(primitive<U> const& other) noexcept {
  93:primitive.hpp ****         m_value -= other.get();
  94:primitive.hpp ****         return *this;
  95:primitive.hpp ****     }
  96:primitive.hpp **** 
  97:primitive.hpp ****     template<typename U>
  98:primitive.hpp ****     primitive& operator*=(U const& other) noexcept {
  99:primitive.hpp ****         m_value *= other;
 100:primitive.hpp ****         return *this;
 101:primitive.hpp ****     }
 102:primitive.hpp ****     template<typename U>
 103:primitive.hpp ****     primitive& operator*=(primitive<U> const& other) noexcept {
 104:primitive.hpp ****         m_value *= other.get();
 105:primitive.hpp ****         return *this;
 106:primitive.hpp ****     }
 107:primitive.hpp **** 
 108:primitive.hpp ****     template<typename U>
 109:primitive.hpp ****     primitive& operator/=(U const& other) noexcept {
 110:primitive.hpp ****         m_value /= other;
 111:primitive.hpp ****         return *this;
 112:primitive.hpp ****     }
 113:primitive.hpp ****     template<typename U>
 114:primitive.hpp ****     primitive& operator/=(primitive<U> const& other) noexcept {
 115:primitive.hpp ****         m_value /= other.get();
 116:primitive.hpp ****         return *this;
 117:primitive.hpp ****     }
ARM GAS  C:\Users\anhqu\AppData\Local\Temp\ccsMGc75.s 			page 9


 118:primitive.hpp **** 
 119:primitive.hpp ****     template<typename U, typename = std::enable_if_t< std::is_integral<T>::value && std::is_integra
 120:primitive.hpp ****     primitive& operator%=(U const& other) noexcept {
 121:primitive.hpp ****         m_value %= other;
 122:primitive.hpp ****         return *this;
 123:primitive.hpp ****     }
 124:primitive.hpp ****     template<typename U, typename = std::enable_if_t< std::is_integral<T>::value && std::is_integra
 125:primitive.hpp ****     primitive& operator%=(primitive<U> const& other) noexcept {
 126:primitive.hpp ****         m_value %= other.get();
 127:primitive.hpp ****         return *this;
 128:primitive.hpp ****     }
 129:primitive.hpp **** 
 130:primitive.hpp ****     template<typename U, typename = std::enable_if_t< std::is_integral<T>::value && std::is_integra
 131:primitive.hpp ****     primitive& operator<<=(U const& other) noexcept {
 132:primitive.hpp ****         m_value <<= other;
 133:primitive.hpp ****         return *this;
 134:primitive.hpp ****     }
 135:primitive.hpp ****     template<typename U, typename = std::enable_if_t< std::is_integral<T>::value && std::is_integra
 136:primitive.hpp ****     primitive& operator<<=(primitive<U> const& other) noexcept {
 137:primitive.hpp ****         m_value <<= other.get();
 138:primitive.hpp ****         return *this;
 139:primitive.hpp ****     }
 140:primitive.hpp **** 
 141:primitive.hpp ****     template<typename U, typename = std::enable_if_t< std::is_integral<T>::value && std::is_integra
 142:primitive.hpp ****     primitive& operator>>=(U const& other) noexcept {
 143:primitive.hpp ****         m_value >>= other;
 144:primitive.hpp ****         return *this;
 145:primitive.hpp ****     }
 146:primitive.hpp ****     template<typename U, typename = std::enable_if_t< std::is_integral<T>::value && std::is_integra
 147:primitive.hpp ****     primitive& operator>>=(primitive<U> const& other) noexcept {
 148:primitive.hpp ****         m_value >>= other.get();
 149:primitive.hpp ****         return *this;
 150:primitive.hpp ****     }
 151:primitive.hpp **** 
 152:primitive.hpp ****     template<typename U, typename = std::enable_if_t< std::is_integral<T>::value && std::is_integra
 153:primitive.hpp ****     primitive& operator&=(U const& other) noexcept {
 154:primitive.hpp ****         m_value &= other;
 155:primitive.hpp ****         return *this;
 156:primitive.hpp ****     }
 157:primitive.hpp ****     template<typename U, typename = std::enable_if_t< std::is_integral<T>::value && std::is_integra
 158:primitive.hpp ****     primitive& operator&=(primitive<U> const& other) noexcept {
 159:primitive.hpp ****         m_value &= other.get();
 160:primitive.hpp ****         return *this;
 161:primitive.hpp ****     }
 162:primitive.hpp **** 
 163:primitive.hpp ****     template<typename U, typename = std::enable_if_t< std::is_integral<T>::value && std::is_integra
 164:primitive.hpp ****     primitive& operator|=(U const& other) noexcept {
 165:primitive.hpp ****         m_value |= other;
 166:primitive.hpp ****         return *this;
 167:primitive.hpp ****     }
 168:primitive.hpp ****     template<typename U, typename = std::enable_if_t< std::is_integral<T>::value && std::is_integra
 169:primitive.hpp ****     primitive& operator|=(primitive<U> const& other) noexcept {
 170:primitive.hpp ****         m_value |= other.get();
 171:primitive.hpp ****         return *this;
 172:primitive.hpp ****     }
 173:primitive.hpp **** 
 174:primitive.hpp ****     template<typename U, typename = std::enable_if_t< std::is_integral<T>::value && std::is_integra
ARM GAS  C:\Users\anhqu\AppData\Local\Temp\ccsMGc75.s 			page 10


 175:primitive.hpp ****     primitive& operator^=(U const& other) noexcept {
 176:primitive.hpp ****         m_value ^= other;
 177:primitive.hpp ****         return *this;
 178:primitive.hpp ****     }
 179:primitive.hpp ****     template<typename U, typename = std::enable_if_t< std::is_integral<T>::value && std::is_integra
 180:primitive.hpp ****     primitive& operator^=(primitive<U> const& other) noexcept {
 181:primitive.hpp ****         m_value ^= other.get();
 182:primitive.hpp ****         return *this;
 183:primitive.hpp ****     }
 184:primitive.hpp **** 
 185:primitive.hpp ****     template<typename U>
 186:primitive.hpp ****     constexpr explicit operator primitive<U>() const noexcept {
 187:primitive.hpp ****         return primitive<U>(static_cast<U>(m_value));
 188:primitive.hpp ****     }
 189:primitive.hpp **** 
 190:primitive.hpp ****     friend std::istream& operator>>(std::istream& lhs, primitive<T> & rhs) {
 191:primitive.hpp ****         return lhs >> rhs.m_value;
 192:primitive.hpp ****     }
 193:primitive.hpp **** };
 194:primitive.hpp **** 
 195:primitive.hpp **** template<typename T>
 196:primitive.hpp **** constexpr primitive<T> operator+(primitive<T> const& lhs, T const& rhs) noexcept {
 197:primitive.hpp ****     return primitive<T>(lhs.get() + rhs);
 198:primitive.hpp **** }
 199:primitive.hpp **** template<typename T>
 200:primitive.hpp **** constexpr primitive<T> operator+(T const& lhs, primitive<T> const& rhs) noexcept {
 201:primitive.hpp ****     return primitive<T>(lhs + rhs.get());
 202:primitive.hpp **** }
 203:primitive.hpp **** template<typename T1, typename T2>
 204:primitive.hpp **** constexpr auto operator+(primitive<T1> const& lhs, primitive<T2> const& rhs) noexcept {
 205:primitive.hpp ****     return primitive<decltype(lhs.get() + rhs.get())>(lhs.get() + rhs.get());
 206:primitive.hpp **** }
 207:primitive.hpp **** 
 208:primitive.hpp **** template<typename T>
 209:primitive.hpp **** constexpr primitive<T> operator-(primitive<T> const& lhs, T const& rhs) noexcept {
 210:primitive.hpp ****     return primitive<T>(lhs.get() - rhs);
 211:primitive.hpp **** }
 212:primitive.hpp **** template<typename T>
 213:primitive.hpp **** constexpr primitive<T> operator-(T const& lhs, primitive<T> const& rhs) noexcept {
 214:primitive.hpp ****     return primitive<T>(lhs - rhs.get());
 215:primitive.hpp **** }
 216:primitive.hpp **** template<typename T1, typename T2>
 217:primitive.hpp **** constexpr auto operator-(primitive<T1> const& lhs, primitive<T2> const& rhs) noexcept {
 218:primitive.hpp ****     return primitive<decltype(lhs.get() - rhs.get())>(lhs.get() - rhs.get());
 219:primitive.hpp **** }
 220:primitive.hpp **** 
 221:primitive.hpp **** template<typename T>
 222:primitive.hpp **** constexpr primitive<T> operator*(primitive<T> const& lhs, T const& rhs) noexcept {
 223:primitive.hpp ****     return primitive<T>(lhs.get() * rhs);
 224:primitive.hpp **** }
 225:primitive.hpp **** template<typename T>
 226:primitive.hpp **** constexpr primitive<T> operator*(T const& lhs, primitive<T> const& rhs) noexcept {
 227:primitive.hpp ****     return primitive<T>(lhs * rhs.get());
 228:primitive.hpp **** }
 229:primitive.hpp **** template<typename T1, typename T2>
 230:primitive.hpp **** constexpr auto operator*(primitive<T1> const& lhs, primitive<T2> const& rhs) noexcept {
 231:primitive.hpp ****     return primitive<decltype(lhs.get() * rhs.get())>(lhs.get() * rhs.get());
ARM GAS  C:\Users\anhqu\AppData\Local\Temp\ccsMGc75.s 			page 11


 232:primitive.hpp **** }
 233:primitive.hpp **** 
 234:primitive.hpp **** template<typename T>
 235:primitive.hpp **** constexpr primitive<T> operator/(primitive<T> const& lhs, T const& rhs) noexcept {
 236:primitive.hpp ****     return primitive<T>(lhs.get() / rhs);
 237:primitive.hpp **** }
 238:primitive.hpp **** template<typename T>
 239:primitive.hpp **** constexpr primitive<T> operator/(T const& lhs, primitive<T> const& rhs) noexcept {
 240:primitive.hpp ****     return primitive<T>(lhs / rhs.get());
 241:primitive.hpp **** }
 242:primitive.hpp **** template<typename T1, typename T2>
 243:primitive.hpp **** constexpr auto operator/(primitive<T1> const& lhs, primitive<T2> const& rhs) noexcept {
 244:primitive.hpp ****     return primitive<decltype(lhs.get() / rhs.get())>(lhs.get() / rhs.get());
 245:primitive.hpp **** }
 246:primitive.hpp **** 
 247:primitive.hpp **** template<typename T, typename = std::enable_if_t< std::is_integral<T>::value >>
 248:primitive.hpp **** constexpr primitive<T> operator%(primitive<T> const& lhs, T const& rhs) noexcept {
 249:primitive.hpp ****     return primitive<T>(lhs.get() % rhs);
 250:primitive.hpp **** }
 251:primitive.hpp **** template<typename T, typename = std::enable_if_t< std::is_integral<T>::value >>
 252:primitive.hpp **** constexpr primitive<T> operator%(T const& lhs, primitive<T> const& rhs) noexcept {
 253:primitive.hpp ****     return primitive<T>(lhs % rhs.get());
 254:primitive.hpp **** }
 255:primitive.hpp **** template<typename T1, typename T2, typename = std::enable_if_t< std::is_integral<T1>::value && std:
 256:primitive.hpp **** constexpr auto operator%(primitive<T1> const& lhs, primitive<T2> const& rhs) noexcept {
 257:primitive.hpp ****     return primitive<decltype(lhs.get() % rhs.get())>(lhs.get() % rhs.get());
 258:primitive.hpp **** }
 259:primitive.hpp **** 
 260:primitive.hpp **** template<typename T, typename = std::enable_if_t< std::is_integral<T>::value >>
 261:primitive.hpp **** constexpr primitive<T> operator&(primitive<T> const& lhs, T const& rhs) noexcept {
 262:primitive.hpp ****     return primitive<T>(lhs.get() & rhs);
 263:primitive.hpp **** }
 264:primitive.hpp **** template<typename T, typename = std::enable_if_t< std::is_integral<T>::value >>
 265:primitive.hpp **** constexpr primitive<T> operator&(T const& lhs, primitive<T> const& rhs) noexcept {
 266:primitive.hpp ****     return primitive<T>(lhs & rhs.get());
 267:primitive.hpp **** }
 268:primitive.hpp **** template<typename T1, typename T2, typename = std::enable_if_t< std::is_integral<T1>::value && std:
 269:primitive.hpp **** constexpr auto operator&(primitive<T1> const& lhs, primitive<T2> const& rhs) noexcept {
 270:primitive.hpp ****     return primitive<decltype(lhs.get() & rhs.get())>(lhs.get() & rhs.get());
 271:primitive.hpp **** }
 272:primitive.hpp **** 
 273:primitive.hpp **** template<typename T, typename = std::enable_if_t< std::is_integral<T>::value >>
 274:primitive.hpp **** constexpr primitive<T> operator|(primitive<T> const& lhs, T const& rhs) noexcept {
 275:primitive.hpp ****     return primitive<T>(lhs.get() | rhs);
 276:primitive.hpp **** }
 277:primitive.hpp **** template<typename T, typename = std::enable_if_t< std::is_integral<T>::value >>
 278:primitive.hpp **** constexpr primitive<T> operator|(T const& lhs, primitive<T> const& rhs) noexcept {
 279:primitive.hpp ****     return primitive<T>(lhs | rhs.get());
 280:primitive.hpp **** }
 281:primitive.hpp **** template<typename T1, typename T2, typename = std::enable_if_t< std::is_integral<T1>::value && std:
 282:primitive.hpp **** constexpr auto operator|(primitive<T1> const& lhs, primitive<T2> const& rhs) noexcept {
 283:primitive.hpp ****     return primitive<decltype(lhs.get() | rhs.get())>(lhs.get() | rhs.get());
 284:primitive.hpp **** }
 285:primitive.hpp **** 
 286:primitive.hpp **** template<typename T, typename = std::enable_if_t< std::is_integral<T>::value >>
 287:primitive.hpp **** constexpr primitive<T> operator^(primitive<T> const& lhs, T const& rhs) noexcept {
 288:primitive.hpp ****     return primitive<T>(lhs.get() ^ rhs);
ARM GAS  C:\Users\anhqu\AppData\Local\Temp\ccsMGc75.s 			page 12


 289:primitive.hpp **** }
 290:primitive.hpp **** template<typename T, typename = std::enable_if_t< std::is_integral<T>::value >>
 291:primitive.hpp **** constexpr primitive<T> operator^(T const& lhs, primitive<T> const& rhs) noexcept {
 292:primitive.hpp ****     return primitive<T>(lhs ^ rhs.get());
 293:primitive.hpp **** }
 294:primitive.hpp **** template<typename T1, typename T2, typename = std::enable_if_t< std::is_integral<T1>::value && std:
 295:primitive.hpp **** constexpr auto operator^(primitive<T1> const& lhs, primitive<T2> const& rhs) noexcept  {
 296:primitive.hpp ****     return primitive<decltype(lhs.get() ^ rhs.get())>(lhs.get() ^ rhs.get());
 297:primitive.hpp **** }
 298:primitive.hpp **** 
 299:primitive.hpp **** template<typename T, typename = std::enable_if_t< std::is_integral<T>::value >>
 300:primitive.hpp **** constexpr primitive<T> operator<<(primitive<T> const& lhs, T const& rhs) noexcept {
 301:primitive.hpp ****     return primitive<T>(lhs.get() << rhs);
 302:primitive.hpp **** }
 303:primitive.hpp **** template<typename T, typename = std::enable_if_t< std::is_integral<T>::value >>
 304:primitive.hpp **** constexpr primitive<T> operator<<(T const& lhs, primitive<T> const& rhs) noexcept {
 305:primitive.hpp ****     return primitive<T>(lhs << rhs.get());
 306:primitive.hpp **** }
 307:primitive.hpp **** template<typename T1, typename T2, typename = std::enable_if_t< std::is_integral<T1>::value && std:
 308:primitive.hpp **** constexpr auto operator<<(primitive<T1> const& lhs, primitive<T2> const& rhs) noexcept {
 309:primitive.hpp ****     return primitive<decltype(lhs.get() << rhs.get())>(lhs.get() << rhs.get());
 310:primitive.hpp **** }
 311:primitive.hpp **** 
 312:primitive.hpp **** template<typename T, typename = std::enable_if_t< std::is_integral<T>::value >>
 313:primitive.hpp **** constexpr primitive<T> operator>>(primitive<T> const& lhs, T const& rhs) noexcept {
 314:primitive.hpp ****     return primitive<T>(lhs.get() >> rhs);
 315:primitive.hpp **** }
 316:primitive.hpp **** template<typename T, typename = std::enable_if_t< std::is_integral<T>::value >>
 317:primitive.hpp **** constexpr primitive<T> operator>>(T const& lhs, primitive<T> const& rhs) noexcept {
 318:primitive.hpp ****     return primitive<T>(lhs >> rhs.get());
 319:primitive.hpp **** }
 320:primitive.hpp **** template<typename T1, typename T2, typename = std::enable_if_t< std::is_integral<T1>::value && std:
 321:primitive.hpp **** constexpr auto operator>>(primitive<T1> const& lhs, primitive<T2> const& rhs) noexcept {
 322:primitive.hpp ****     return primitive<decltype(lhs.get() >> rhs.get())>(lhs.get() >> rhs.get());
 323:primitive.hpp **** }
 324:primitive.hpp **** 
 325:primitive.hpp **** constexpr bool operator&&(primitive<bool> const& lhs, bool const& rhs) noexcept {
 326:primitive.hpp ****     return lhs.get() && rhs;
 327:primitive.hpp **** }
 328:primitive.hpp **** constexpr bool operator&&(bool const& lhs, primitive<bool> const& rhs) noexcept {
 329:primitive.hpp ****     return lhs && rhs.get();
 330:primitive.hpp **** }
 331:primitive.hpp **** constexpr bool operator&&(primitive<bool> const& lhs, primitive<bool> const& rhs) noexcept {
 332:primitive.hpp ****     return lhs.get() && rhs.get();
 333:primitive.hpp **** }
 334:primitive.hpp **** 
 335:primitive.hpp **** constexpr bool operator||(primitive<bool> const& lhs, bool const& rhs) noexcept {
 336:primitive.hpp ****     return lhs.get() || rhs;
 337:primitive.hpp **** }
 338:primitive.hpp **** constexpr bool operator||(bool const& lhs, primitive<bool> const& rhs) noexcept {
 339:primitive.hpp ****     return lhs || rhs.get();
 340:primitive.hpp **** }
 341:primitive.hpp **** constexpr bool operator||(primitive<bool> const& lhs, primitive<bool> const& rhs) noexcept {
 342:primitive.hpp ****     return lhs.get() || rhs.get();
 343:primitive.hpp **** }
 344:primitive.hpp **** 
 345:primitive.hpp **** template<typename T>
ARM GAS  C:\Users\anhqu\AppData\Local\Temp\ccsMGc75.s 			page 13


 346:primitive.hpp **** constexpr bool operator==(primitive<T> const& lhs, T const& rhs) noexcept {
 347:primitive.hpp ****     return lhs.get() == rhs;
 348:primitive.hpp **** }
 349:primitive.hpp **** template<typename T>
 350:primitive.hpp **** constexpr bool operator==(T const& lhs, primitive<T> const& rhs) noexcept {
 351:primitive.hpp ****     return lhs == rhs.get();
 352:primitive.hpp **** }
 353:primitive.hpp **** template<typename T1, typename T2>
 354:primitive.hpp **** constexpr bool operator==(primitive<T1> const& lhs, primitive<T2> const& rhs) noexcept {
 355:primitive.hpp ****     return lhs.get() == rhs.get();
 356:primitive.hpp **** }
 357:primitive.hpp **** 
 358:primitive.hpp **** template<typename T>
 359:primitive.hpp **** constexpr bool operator!=(primitive<T> const& lhs, T const& rhs) noexcept {
 360:primitive.hpp ****     return lhs.get() != rhs;
 361:primitive.hpp **** }
 362:primitive.hpp **** template<typename T>
 363:primitive.hpp **** constexpr bool operator!=(T const& lhs, primitive<T> const& rhs) noexcept {
 364:primitive.hpp ****     return lhs != rhs.get();
 365:primitive.hpp **** }
 366:primitive.hpp **** template<typename T1, typename T2>
 367:primitive.hpp **** constexpr bool operator!=(primitive<T1> const& lhs, primitive<T2> const& rhs) noexcept {
 368:primitive.hpp ****     return lhs.get() != rhs.get();
 369:primitive.hpp **** }
 370:primitive.hpp **** 
 371:primitive.hpp **** template<typename T>
 372:primitive.hpp **** constexpr bool operator<(primitive<T> const& lhs, T const& rhs) noexcept {
 293              		.loc 1 372 0
 294              		.cfi_startproc
 295              		@ Function supports interworking.
 296              		@ args = 0, pretend = 0, frame = 8
 297              		@ frame_needed = 0, uses_anonymous_args = 0
 298 0000 04E02DE5 		str	lr, [sp, #-4]!
 299              	.LCFI14:
 300              		.cfi_def_cfa_offset 4
 301              		.cfi_offset 14, -4
 302 0004 0CD04DE2 		sub	sp, sp, #12
 303              	.LCFI15:
 304              		.cfi_def_cfa_offset 16
 305 0008 04008DE5 		str	r0, [sp, #4]
 306 000c 00108DE5 		str	r1, [sp]
 373:primitive.hpp ****     return lhs.get() < rhs;
 307              		.loc 1 373 0
 308 0010 04009DE5 		ldr	r0, [sp, #4]
 309 0014 FEFFFFEB 		bl	_ZNK10primitives9primitiveIjvE3getEv
 310 0018 0030A0E1 		mov	r3, r0
 311 001c 002093E5 		ldr	r2, [r3]
 312 0020 00309DE5 		ldr	r3, [sp]
 313 0024 003093E5 		ldr	r3, [r3]
 314 0028 030052E1 		cmp	r2, r3
 315 002c 0130A033 		movcc	r3, #1
 316 0030 0030A023 		movcs	r3, #0
 317 0034 FF3003E2 		and	r3, r3, #255
 374:primitive.hpp **** }
 318              		.loc 1 374 0
 319 0038 0300A0E1 		mov	r0, r3
 320 003c 0CD08DE2 		add	sp, sp, #12
ARM GAS  C:\Users\anhqu\AppData\Local\Temp\ccsMGc75.s 			page 14


 321              	.LCFI16:
 322              		.cfi_def_cfa_offset 4
 323              		@ sp needed
 324 0040 04E09DE4 		ldr	lr, [sp], #4
 325              	.LCFI17:
 326              		.cfi_restore 14
 327              		.cfi_def_cfa_offset 0
 328 0044 1EFF2FE1 		bx	lr
 329              		.cfi_endproc
 330              	.LFE920:
 331              		.cantunwind
 332              		.fnend
 333              		.size	_ZN10primitivesltIjEEbRKNS_9primitiveIT_NSt9enable_ifIXsrSt13is_arithmeticIS2_E5valueEvE4typ
 334              		.section	.text._ZN10primitivesplERKNS_17carried_primitiveERKj,"axG",%progbits,_ZN10primitivesplERK
 335              		.align	2
 336              		.weak	_ZN10primitivesplERKNS_17carried_primitiveERKj
 337              		.syntax unified
 338              		.arm
 339              		.fpu softvfp
 340              		.type	_ZN10primitivesplERKNS_17carried_primitiveERKj, %function
 341              	_ZN10primitivesplERKNS_17carried_primitiveERKj:
 342              		.fnstart
 343              	.LFB919:
  48:carried_primitive.hpp **** 		// borrowing hasn't been programmed yet
  49:carried_primitive.hpp **** //    primitive& operator--() noexcept {
  50:carried_primitive.hpp **** //        --m_value;
  51:carried_primitive.hpp **** //        return *this;
  52:carried_primitive.hpp **** //    }
  53:carried_primitive.hpp **** //    primitive operator--(int) noexcept {
  54:carried_primitive.hpp **** //        return primitive(m_value--);
  55:carried_primitive.hpp **** //    }
  56:carried_primitive.hpp **** //	and for -= operations
  57:carried_primitive.hpp **** 	};
  58:carried_primitive.hpp **** 
  59:carried_primitive.hpp **** //template<typename T> // T could be another unsigned type, like unsigned char or unsigned short
  60:carried_primitive.hpp **** constexpr carried_primitive operator+(carried_primitive const& lhs, unsigned const& rhs) noexcept {
 344              		.loc 2 60 0
 345              		.cfi_startproc
 346              		@ Function supports interworking.
 347              		@ args = 0, pretend = 0, frame = 16
 348              		@ frame_needed = 0, uses_anonymous_args = 0
 349 0000 04E02DE5 		str	lr, [sp, #-4]!
 350              	.LCFI18:
 351              		.cfi_def_cfa_offset 4
 352              		.cfi_offset 14, -4
 353 0004 14D04DE2 		sub	sp, sp, #20
 354              	.LCFI19:
 355              		.cfi_def_cfa_offset 24
 356 0008 04008DE5 		str	r0, [sp, #4]
 357 000c 00108DE5 		str	r1, [sp]
  61:carried_primitive.hpp **** 	auto result = carried_primitive(lhs.get() + rhs);
 358              		.loc 2 61 0
 359 0010 04309DE5 		ldr	r3, [sp, #4]
 360 0014 0300A0E1 		mov	r0, r3
 361 0018 FEFFFFEB 		bl	_ZNK10primitives9primitiveIjvE3getEv
 362 001c 0030A0E1 		mov	r3, r0
 363 0020 002093E5 		ldr	r2, [r3]
ARM GAS  C:\Users\anhqu\AppData\Local\Temp\ccsMGc75.s 			page 15


 364 0024 00309DE5 		ldr	r3, [sp]
 365 0028 003093E5 		ldr	r3, [r3]
 366 002c 033082E0 		add	r3, r2, r3
 367 0030 0C308DE5 		str	r3, [sp, #12]
 368 0034 0C208DE2 		add	r2, sp, #12
 369 0038 08308DE2 		add	r3, sp, #8
 370 003c 0210A0E1 		mov	r1, r2
 371 0040 0300A0E1 		mov	r0, r3
 372 0044 FEFFFFEB 		bl	_ZN10primitives17carried_primitiveC1IjvEERKT_
  62:carried_primitive.hpp **** 	carry = result < rhs;
 373              		.loc 2 62 0
 374 0048 08308DE2 		add	r3, sp, #8
 375 004c 00109DE5 		ldr	r1, [sp]
 376 0050 0300A0E1 		mov	r0, r3
 377 0054 FEFFFFEB 		bl	_ZN10primitivesltIjEEbRKNS_9primitiveIT_NSt9enable_ifIXsrSt13is_arithmeticIS2_E5valueEvE4typeEE
 378 0058 0030A0E1 		mov	r3, r0
 379 005c 0320A0E1 		mov	r2, r3
 380 0060 14309FE5 		ldr	r3, .L19
 381 0064 002083E5 		str	r2, [r3]
  63:carried_primitive.hpp **** 	return result;
 382              		.loc 2 63 0
 383 0068 08309DE5 		ldr	r3, [sp, #8]
  64:carried_primitive.hpp **** }
 384              		.loc 2 64 0
 385 006c 0300A0E1 		mov	r0, r3
 386 0070 14D08DE2 		add	sp, sp, #20
 387              	.LCFI20:
 388              		.cfi_def_cfa_offset 4
 389              		@ sp needed
 390 0074 04E09DE4 		ldr	lr, [sp], #4
 391              	.LCFI21:
 392              		.cfi_restore 14
 393              		.cfi_def_cfa_offset 0
 394 0078 1EFF2FE1 		bx	lr
 395              	.L20:
 396              		.align	2
 397              	.L19:
 398 007c 00000000 		.word	_ZN10primitives5carryE
 399              		.cfi_endproc
 400              	.LFE919:
 401              		.cantunwind
 402              		.fnend
 403              		.size	_ZN10primitivesplERKNS_17carried_primitiveERKj, .-_ZN10primitivesplERKNS_17carried_primitive
 404              		.section	.text._ZN10primitivesltIjjEEbRKNS_9primitiveIT_NSt9enable_ifIXsrSt13is_arithmeticIS2_E5va
 405              		.align	2
 406              		.weak	_ZN10primitivesltIjjEEbRKNS_9primitiveIT_NSt9enable_ifIXsrSt13is_arithmeticIS2_E5valueEvE4ty
 407              		.syntax unified
 408              		.arm
 409              		.fpu softvfp
 410              		.type	_ZN10primitivesltIjjEEbRKNS_9primitiveIT_NSt9enable_ifIXsrSt13is_arithmeticIS2_E5valueEvE4ty
 411              	_ZN10primitivesltIjjEEbRKNS_9primitiveIT_NSt9enable_ifIXsrSt13is_arithmeticIS2_E5valueEvE4typeEEERK
 412              		.fnstart
 413              	.LFB925:
 375:primitive.hpp **** template<typename T>
 376:primitive.hpp **** constexpr bool operator<(T const& lhs, primitive<T> const& rhs) noexcept {
 377:primitive.hpp ****     return lhs < rhs.get();
 378:primitive.hpp **** }
ARM GAS  C:\Users\anhqu\AppData\Local\Temp\ccsMGc75.s 			page 16


 379:primitive.hpp **** template<typename T1, typename T2>
 380:primitive.hpp **** constexpr bool operator<(primitive<T1> const& lhs, primitive<T2> const& rhs) noexcept {
 414              		.loc 1 380 0
 415              		.cfi_startproc
 416              		@ Function supports interworking.
 417              		@ args = 0, pretend = 0, frame = 8
 418              		@ frame_needed = 0, uses_anonymous_args = 0
 419 0000 10402DE9 		push	{r4, lr}
 420              	.LCFI22:
 421              		.cfi_def_cfa_offset 8
 422              		.cfi_offset 4, -8
 423              		.cfi_offset 14, -4
 424 0004 08D04DE2 		sub	sp, sp, #8
 425              	.LCFI23:
 426              		.cfi_def_cfa_offset 16
 427 0008 04008DE5 		str	r0, [sp, #4]
 428 000c 00108DE5 		str	r1, [sp]
 381:primitive.hpp ****     return lhs.get() < rhs.get();
 429              		.loc 1 381 0
 430 0010 04009DE5 		ldr	r0, [sp, #4]
 431 0014 FEFFFFEB 		bl	_ZNK10primitives9primitiveIjvE3getEv
 432 0018 0030A0E1 		mov	r3, r0
 433 001c 004093E5 		ldr	r4, [r3]
 434 0020 00009DE5 		ldr	r0, [sp]
 435 0024 FEFFFFEB 		bl	_ZNK10primitives9primitiveIjvE3getEv
 436 0028 0030A0E1 		mov	r3, r0
 437 002c 003093E5 		ldr	r3, [r3]
 438 0030 030054E1 		cmp	r4, r3
 439 0034 0130A033 		movcc	r3, #1
 440 0038 0030A023 		movcs	r3, #0
 441 003c FF3003E2 		and	r3, r3, #255
 382:primitive.hpp **** }
 442              		.loc 1 382 0
 443 0040 0300A0E1 		mov	r0, r3
 444 0044 08D08DE2 		add	sp, sp, #8
 445              	.LCFI24:
 446              		.cfi_def_cfa_offset 8
 447              		@ sp needed
 448 0048 1040BDE8 		pop	{r4, lr}
 449              	.LCFI25:
 450              		.cfi_restore 14
 451              		.cfi_restore 4
 452              		.cfi_def_cfa_offset 0
 453 004c 1EFF2FE1 		bx	lr
 454              		.cfi_endproc
 455              	.LFE925:
 456              		.cantunwind
 457              		.fnend
 458              		.size	_ZN10primitivesltIjjEEbRKNS_9primitiveIT_NSt9enable_ifIXsrSt13is_arithmeticIS2_E5valueEvE4ty
 459              		.section	.text._ZSt3maxIN10primitives17carried_primitiveEERKT_S4_S4_,"axG",%progbits,_ZSt3maxIN10p
 460              		.align	2
 461              		.weak	_ZSt3maxIN10primitives17carried_primitiveEERKT_S4_S4_
 462              		.syntax unified
 463              		.arm
 464              		.fpu softvfp
 465              		.type	_ZSt3maxIN10primitives17carried_primitiveEERKT_S4_S4_, %function
 466              	_ZSt3maxIN10primitives17carried_primitiveEERKT_S4_S4_:
ARM GAS  C:\Users\anhqu\AppData\Local\Temp\ccsMGc75.s 			page 17


 467              		.fnstart
 468              	.LFB924:
 469              		.file 3 "c:\\program files (x86)\\gnu tools arm embedded\\6 2017-q2-update\\arm-none-eabi\\include
   1:c:\program files (x86)\gnu tools arm embedded\6 2017-q2-update\arm-none-eabi\include\c++\6.3.1\bits\stl_algobase.h **** // Core algorithmic facilities -*- C++ -*-
   2:c:\program files (x86)\gnu tools arm embedded\6 2017-q2-update\arm-none-eabi\include\c++\6.3.1\bits\stl_algobase.h **** 
   3:c:\program files (x86)\gnu tools arm embedded\6 2017-q2-update\arm-none-eabi\include\c++\6.3.1\bits\stl_algobase.h **** // Copyright (C) 2001-2016 Free Software Foundation, Inc.
   4:c:\program files (x86)\gnu tools arm embedded\6 2017-q2-update\arm-none-eabi\include\c++\6.3.1\bits\stl_algobase.h **** //
   5:c:\program files (x86)\gnu tools arm embedded\6 2017-q2-update\arm-none-eabi\include\c++\6.3.1\bits\stl_algobase.h **** // This file is part of the GNU ISO C++ Library.  This library is free
   6:c:\program files (x86)\gnu tools arm embedded\6 2017-q2-update\arm-none-eabi\include\c++\6.3.1\bits\stl_algobase.h **** // software; you can redistribute it and/or modify it under the
   7:c:\program files (x86)\gnu tools arm embedded\6 2017-q2-update\arm-none-eabi\include\c++\6.3.1\bits\stl_algobase.h **** // terms of the GNU General Public License as published by the
   8:c:\program files (x86)\gnu tools arm embedded\6 2017-q2-update\arm-none-eabi\include\c++\6.3.1\bits\stl_algobase.h **** // Free Software Foundation; either version 3, or (at your option)
   9:c:\program files (x86)\gnu tools arm embedded\6 2017-q2-update\arm-none-eabi\include\c++\6.3.1\bits\stl_algobase.h **** // any later version.
  10:c:\program files (x86)\gnu tools arm embedded\6 2017-q2-update\arm-none-eabi\include\c++\6.3.1\bits\stl_algobase.h **** 
  11:c:\program files (x86)\gnu tools arm embedded\6 2017-q2-update\arm-none-eabi\include\c++\6.3.1\bits\stl_algobase.h **** // This library is distributed in the hope that it will be useful,
  12:c:\program files (x86)\gnu tools arm embedded\6 2017-q2-update\arm-none-eabi\include\c++\6.3.1\bits\stl_algobase.h **** // but WITHOUT ANY WARRANTY; without even the implied warranty of
  13:c:\program files (x86)\gnu tools arm embedded\6 2017-q2-update\arm-none-eabi\include\c++\6.3.1\bits\stl_algobase.h **** // MERCHANTABILITY or FITNESS FOR A PARTICULAR PURPOSE.  See the
  14:c:\program files (x86)\gnu tools arm embedded\6 2017-q2-update\arm-none-eabi\include\c++\6.3.1\bits\stl_algobase.h **** // GNU General Public License for more details.
  15:c:\program files (x86)\gnu tools arm embedded\6 2017-q2-update\arm-none-eabi\include\c++\6.3.1\bits\stl_algobase.h **** 
  16:c:\program files (x86)\gnu tools arm embedded\6 2017-q2-update\arm-none-eabi\include\c++\6.3.1\bits\stl_algobase.h **** // Under Section 7 of GPL version 3, you are granted additional
  17:c:\program files (x86)\gnu tools arm embedded\6 2017-q2-update\arm-none-eabi\include\c++\6.3.1\bits\stl_algobase.h **** // permissions described in the GCC Runtime Library Exception, version
  18:c:\program files (x86)\gnu tools arm embedded\6 2017-q2-update\arm-none-eabi\include\c++\6.3.1\bits\stl_algobase.h **** // 3.1, as published by the Free Software Foundation.
  19:c:\program files (x86)\gnu tools arm embedded\6 2017-q2-update\arm-none-eabi\include\c++\6.3.1\bits\stl_algobase.h **** 
  20:c:\program files (x86)\gnu tools arm embedded\6 2017-q2-update\arm-none-eabi\include\c++\6.3.1\bits\stl_algobase.h **** // You should have received a copy of the GNU General Public License and
  21:c:\program files (x86)\gnu tools arm embedded\6 2017-q2-update\arm-none-eabi\include\c++\6.3.1\bits\stl_algobase.h **** // a copy of the GCC Runtime Library Exception along with this program;
  22:c:\program files (x86)\gnu tools arm embedded\6 2017-q2-update\arm-none-eabi\include\c++\6.3.1\bits\stl_algobase.h **** // see the files COPYING3 and COPYING.RUNTIME respectively.  If not, see
  23:c:\program files (x86)\gnu tools arm embedded\6 2017-q2-update\arm-none-eabi\include\c++\6.3.1\bits\stl_algobase.h **** // <http://www.gnu.org/licenses/>.
  24:c:\program files (x86)\gnu tools arm embedded\6 2017-q2-update\arm-none-eabi\include\c++\6.3.1\bits\stl_algobase.h **** 
  25:c:\program files (x86)\gnu tools arm embedded\6 2017-q2-update\arm-none-eabi\include\c++\6.3.1\bits\stl_algobase.h **** /*
  26:c:\program files (x86)\gnu tools arm embedded\6 2017-q2-update\arm-none-eabi\include\c++\6.3.1\bits\stl_algobase.h ****  *
  27:c:\program files (x86)\gnu tools arm embedded\6 2017-q2-update\arm-none-eabi\include\c++\6.3.1\bits\stl_algobase.h ****  * Copyright (c) 1994
  28:c:\program files (x86)\gnu tools arm embedded\6 2017-q2-update\arm-none-eabi\include\c++\6.3.1\bits\stl_algobase.h ****  * Hewlett-Packard Company
  29:c:\program files (x86)\gnu tools arm embedded\6 2017-q2-update\arm-none-eabi\include\c++\6.3.1\bits\stl_algobase.h ****  *
  30:c:\program files (x86)\gnu tools arm embedded\6 2017-q2-update\arm-none-eabi\include\c++\6.3.1\bits\stl_algobase.h ****  * Permission to use, copy, modify, distribute and sell this software
  31:c:\program files (x86)\gnu tools arm embedded\6 2017-q2-update\arm-none-eabi\include\c++\6.3.1\bits\stl_algobase.h ****  * and its documentation for any purpose is hereby granted without fee,
  32:c:\program files (x86)\gnu tools arm embedded\6 2017-q2-update\arm-none-eabi\include\c++\6.3.1\bits\stl_algobase.h ****  * provided that the above copyright notice appear in all copies and
  33:c:\program files (x86)\gnu tools arm embedded\6 2017-q2-update\arm-none-eabi\include\c++\6.3.1\bits\stl_algobase.h ****  * that both that copyright notice and this permission notice appear
  34:c:\program files (x86)\gnu tools arm embedded\6 2017-q2-update\arm-none-eabi\include\c++\6.3.1\bits\stl_algobase.h ****  * in supporting documentation.  Hewlett-Packard Company makes no
  35:c:\program files (x86)\gnu tools arm embedded\6 2017-q2-update\arm-none-eabi\include\c++\6.3.1\bits\stl_algobase.h ****  * representations about the suitability of this software for any
  36:c:\program files (x86)\gnu tools arm embedded\6 2017-q2-update\arm-none-eabi\include\c++\6.3.1\bits\stl_algobase.h ****  * purpose.  It is provided "as is" without express or implied warranty.
  37:c:\program files (x86)\gnu tools arm embedded\6 2017-q2-update\arm-none-eabi\include\c++\6.3.1\bits\stl_algobase.h ****  *
  38:c:\program files (x86)\gnu tools arm embedded\6 2017-q2-update\arm-none-eabi\include\c++\6.3.1\bits\stl_algobase.h ****  *
  39:c:\program files (x86)\gnu tools arm embedded\6 2017-q2-update\arm-none-eabi\include\c++\6.3.1\bits\stl_algobase.h ****  * Copyright (c) 1996-1998
  40:c:\program files (x86)\gnu tools arm embedded\6 2017-q2-update\arm-none-eabi\include\c++\6.3.1\bits\stl_algobase.h ****  * Silicon Graphics Computer Systems, Inc.
  41:c:\program files (x86)\gnu tools arm embedded\6 2017-q2-update\arm-none-eabi\include\c++\6.3.1\bits\stl_algobase.h ****  *
  42:c:\program files (x86)\gnu tools arm embedded\6 2017-q2-update\arm-none-eabi\include\c++\6.3.1\bits\stl_algobase.h ****  * Permission to use, copy, modify, distribute and sell this software
  43:c:\program files (x86)\gnu tools arm embedded\6 2017-q2-update\arm-none-eabi\include\c++\6.3.1\bits\stl_algobase.h ****  * and its documentation for any purpose is hereby granted without fee,
  44:c:\program files (x86)\gnu tools arm embedded\6 2017-q2-update\arm-none-eabi\include\c++\6.3.1\bits\stl_algobase.h ****  * provided that the above copyright notice appear in all copies and
  45:c:\program files (x86)\gnu tools arm embedded\6 2017-q2-update\arm-none-eabi\include\c++\6.3.1\bits\stl_algobase.h ****  * that both that copyright notice and this permission notice appear
  46:c:\program files (x86)\gnu tools arm embedded\6 2017-q2-update\arm-none-eabi\include\c++\6.3.1\bits\stl_algobase.h ****  * in supporting documentation.  Silicon Graphics makes no
  47:c:\program files (x86)\gnu tools arm embedded\6 2017-q2-update\arm-none-eabi\include\c++\6.3.1\bits\stl_algobase.h ****  * representations about the suitability of this software for any
  48:c:\program files (x86)\gnu tools arm embedded\6 2017-q2-update\arm-none-eabi\include\c++\6.3.1\bits\stl_algobase.h ****  * purpose.  It is provided "as is" without express or implied warranty.
  49:c:\program files (x86)\gnu tools arm embedded\6 2017-q2-update\arm-none-eabi\include\c++\6.3.1\bits\stl_algobase.h ****  */
  50:c:\program files (x86)\gnu tools arm embedded\6 2017-q2-update\arm-none-eabi\include\c++\6.3.1\bits\stl_algobase.h **** 
  51:c:\program files (x86)\gnu tools arm embedded\6 2017-q2-update\arm-none-eabi\include\c++\6.3.1\bits\stl_algobase.h **** /** @file bits/stl_algobase.h
  52:c:\program files (x86)\gnu tools arm embedded\6 2017-q2-update\arm-none-eabi\include\c++\6.3.1\bits\stl_algobase.h ****  *  This is an internal header file, included by other library headers.
  53:c:\program files (x86)\gnu tools arm embedded\6 2017-q2-update\arm-none-eabi\include\c++\6.3.1\bits\stl_algobase.h ****  *  Do not attempt to use it directly. @headername{algorithm}
  54:c:\program files (x86)\gnu tools arm embedded\6 2017-q2-update\arm-none-eabi\include\c++\6.3.1\bits\stl_algobase.h ****  */
ARM GAS  C:\Users\anhqu\AppData\Local\Temp\ccsMGc75.s 			page 18


  55:c:\program files (x86)\gnu tools arm embedded\6 2017-q2-update\arm-none-eabi\include\c++\6.3.1\bits\stl_algobase.h **** 
  56:c:\program files (x86)\gnu tools arm embedded\6 2017-q2-update\arm-none-eabi\include\c++\6.3.1\bits\stl_algobase.h **** #ifndef _STL_ALGOBASE_H
  57:c:\program files (x86)\gnu tools arm embedded\6 2017-q2-update\arm-none-eabi\include\c++\6.3.1\bits\stl_algobase.h **** #define _STL_ALGOBASE_H 1
  58:c:\program files (x86)\gnu tools arm embedded\6 2017-q2-update\arm-none-eabi\include\c++\6.3.1\bits\stl_algobase.h **** 
  59:c:\program files (x86)\gnu tools arm embedded\6 2017-q2-update\arm-none-eabi\include\c++\6.3.1\bits\stl_algobase.h **** #include <bits/c++config.h>
  60:c:\program files (x86)\gnu tools arm embedded\6 2017-q2-update\arm-none-eabi\include\c++\6.3.1\bits\stl_algobase.h **** #include <bits/functexcept.h>
  61:c:\program files (x86)\gnu tools arm embedded\6 2017-q2-update\arm-none-eabi\include\c++\6.3.1\bits\stl_algobase.h **** #include <bits/cpp_type_traits.h>
  62:c:\program files (x86)\gnu tools arm embedded\6 2017-q2-update\arm-none-eabi\include\c++\6.3.1\bits\stl_algobase.h **** #include <ext/type_traits.h>
  63:c:\program files (x86)\gnu tools arm embedded\6 2017-q2-update\arm-none-eabi\include\c++\6.3.1\bits\stl_algobase.h **** #include <ext/numeric_traits.h>
  64:c:\program files (x86)\gnu tools arm embedded\6 2017-q2-update\arm-none-eabi\include\c++\6.3.1\bits\stl_algobase.h **** #include <bits/stl_pair.h>
  65:c:\program files (x86)\gnu tools arm embedded\6 2017-q2-update\arm-none-eabi\include\c++\6.3.1\bits\stl_algobase.h **** #include <bits/stl_iterator_base_types.h>
  66:c:\program files (x86)\gnu tools arm embedded\6 2017-q2-update\arm-none-eabi\include\c++\6.3.1\bits\stl_algobase.h **** #include <bits/stl_iterator_base_funcs.h>
  67:c:\program files (x86)\gnu tools arm embedded\6 2017-q2-update\arm-none-eabi\include\c++\6.3.1\bits\stl_algobase.h **** #include <bits/stl_iterator.h>
  68:c:\program files (x86)\gnu tools arm embedded\6 2017-q2-update\arm-none-eabi\include\c++\6.3.1\bits\stl_algobase.h **** #include <bits/concept_check.h>
  69:c:\program files (x86)\gnu tools arm embedded\6 2017-q2-update\arm-none-eabi\include\c++\6.3.1\bits\stl_algobase.h **** #include <debug/debug.h>
  70:c:\program files (x86)\gnu tools arm embedded\6 2017-q2-update\arm-none-eabi\include\c++\6.3.1\bits\stl_algobase.h **** #include <bits/move.h> // For std::swap and _GLIBCXX_MOVE
  71:c:\program files (x86)\gnu tools arm embedded\6 2017-q2-update\arm-none-eabi\include\c++\6.3.1\bits\stl_algobase.h **** #include <bits/predefined_ops.h>
  72:c:\program files (x86)\gnu tools arm embedded\6 2017-q2-update\arm-none-eabi\include\c++\6.3.1\bits\stl_algobase.h **** 
  73:c:\program files (x86)\gnu tools arm embedded\6 2017-q2-update\arm-none-eabi\include\c++\6.3.1\bits\stl_algobase.h **** namespace std _GLIBCXX_VISIBILITY(default)
  74:c:\program files (x86)\gnu tools arm embedded\6 2017-q2-update\arm-none-eabi\include\c++\6.3.1\bits\stl_algobase.h **** {
  75:c:\program files (x86)\gnu tools arm embedded\6 2017-q2-update\arm-none-eabi\include\c++\6.3.1\bits\stl_algobase.h **** _GLIBCXX_BEGIN_NAMESPACE_VERSION
  76:c:\program files (x86)\gnu tools arm embedded\6 2017-q2-update\arm-none-eabi\include\c++\6.3.1\bits\stl_algobase.h **** 
  77:c:\program files (x86)\gnu tools arm embedded\6 2017-q2-update\arm-none-eabi\include\c++\6.3.1\bits\stl_algobase.h **** #if __cplusplus < 201103L
  78:c:\program files (x86)\gnu tools arm embedded\6 2017-q2-update\arm-none-eabi\include\c++\6.3.1\bits\stl_algobase.h ****   // See http://gcc.gnu.org/ml/libstdc++/2004-08/msg00167.html: in a
  79:c:\program files (x86)\gnu tools arm embedded\6 2017-q2-update\arm-none-eabi\include\c++\6.3.1\bits\stl_algobase.h ****   // nutshell, we are partially implementing the resolution of DR 187,
  80:c:\program files (x86)\gnu tools arm embedded\6 2017-q2-update\arm-none-eabi\include\c++\6.3.1\bits\stl_algobase.h ****   // when it's safe, i.e., the value_types are equal.
  81:c:\program files (x86)\gnu tools arm embedded\6 2017-q2-update\arm-none-eabi\include\c++\6.3.1\bits\stl_algobase.h ****   template<bool _BoolType>
  82:c:\program files (x86)\gnu tools arm embedded\6 2017-q2-update\arm-none-eabi\include\c++\6.3.1\bits\stl_algobase.h ****     struct __iter_swap
  83:c:\program files (x86)\gnu tools arm embedded\6 2017-q2-update\arm-none-eabi\include\c++\6.3.1\bits\stl_algobase.h ****     {
  84:c:\program files (x86)\gnu tools arm embedded\6 2017-q2-update\arm-none-eabi\include\c++\6.3.1\bits\stl_algobase.h ****       template<typename _ForwardIterator1, typename _ForwardIterator2>
  85:c:\program files (x86)\gnu tools arm embedded\6 2017-q2-update\arm-none-eabi\include\c++\6.3.1\bits\stl_algobase.h ****         static void
  86:c:\program files (x86)\gnu tools arm embedded\6 2017-q2-update\arm-none-eabi\include\c++\6.3.1\bits\stl_algobase.h ****         iter_swap(_ForwardIterator1 __a, _ForwardIterator2 __b)
  87:c:\program files (x86)\gnu tools arm embedded\6 2017-q2-update\arm-none-eabi\include\c++\6.3.1\bits\stl_algobase.h ****         {
  88:c:\program files (x86)\gnu tools arm embedded\6 2017-q2-update\arm-none-eabi\include\c++\6.3.1\bits\stl_algobase.h ****           typedef typename iterator_traits<_ForwardIterator1>::value_type
  89:c:\program files (x86)\gnu tools arm embedded\6 2017-q2-update\arm-none-eabi\include\c++\6.3.1\bits\stl_algobase.h ****             _ValueType1;
  90:c:\program files (x86)\gnu tools arm embedded\6 2017-q2-update\arm-none-eabi\include\c++\6.3.1\bits\stl_algobase.h ****           _ValueType1 __tmp = _GLIBCXX_MOVE(*__a);
  91:c:\program files (x86)\gnu tools arm embedded\6 2017-q2-update\arm-none-eabi\include\c++\6.3.1\bits\stl_algobase.h ****           *__a = _GLIBCXX_MOVE(*__b);
  92:c:\program files (x86)\gnu tools arm embedded\6 2017-q2-update\arm-none-eabi\include\c++\6.3.1\bits\stl_algobase.h ****           *__b = _GLIBCXX_MOVE(__tmp);
  93:c:\program files (x86)\gnu tools arm embedded\6 2017-q2-update\arm-none-eabi\include\c++\6.3.1\bits\stl_algobase.h **** 	}
  94:c:\program files (x86)\gnu tools arm embedded\6 2017-q2-update\arm-none-eabi\include\c++\6.3.1\bits\stl_algobase.h ****     };
  95:c:\program files (x86)\gnu tools arm embedded\6 2017-q2-update\arm-none-eabi\include\c++\6.3.1\bits\stl_algobase.h **** 
  96:c:\program files (x86)\gnu tools arm embedded\6 2017-q2-update\arm-none-eabi\include\c++\6.3.1\bits\stl_algobase.h ****   template<>
  97:c:\program files (x86)\gnu tools arm embedded\6 2017-q2-update\arm-none-eabi\include\c++\6.3.1\bits\stl_algobase.h ****     struct __iter_swap<true>
  98:c:\program files (x86)\gnu tools arm embedded\6 2017-q2-update\arm-none-eabi\include\c++\6.3.1\bits\stl_algobase.h ****     {
  99:c:\program files (x86)\gnu tools arm embedded\6 2017-q2-update\arm-none-eabi\include\c++\6.3.1\bits\stl_algobase.h ****       template<typename _ForwardIterator1, typename _ForwardIterator2>
 100:c:\program files (x86)\gnu tools arm embedded\6 2017-q2-update\arm-none-eabi\include\c++\6.3.1\bits\stl_algobase.h ****         static void 
 101:c:\program files (x86)\gnu tools arm embedded\6 2017-q2-update\arm-none-eabi\include\c++\6.3.1\bits\stl_algobase.h ****         iter_swap(_ForwardIterator1 __a, _ForwardIterator2 __b)
 102:c:\program files (x86)\gnu tools arm embedded\6 2017-q2-update\arm-none-eabi\include\c++\6.3.1\bits\stl_algobase.h ****         {
 103:c:\program files (x86)\gnu tools arm embedded\6 2017-q2-update\arm-none-eabi\include\c++\6.3.1\bits\stl_algobase.h ****           swap(*__a, *__b);
 104:c:\program files (x86)\gnu tools arm embedded\6 2017-q2-update\arm-none-eabi\include\c++\6.3.1\bits\stl_algobase.h ****         }
 105:c:\program files (x86)\gnu tools arm embedded\6 2017-q2-update\arm-none-eabi\include\c++\6.3.1\bits\stl_algobase.h ****     };
 106:c:\program files (x86)\gnu tools arm embedded\6 2017-q2-update\arm-none-eabi\include\c++\6.3.1\bits\stl_algobase.h **** #endif
 107:c:\program files (x86)\gnu tools arm embedded\6 2017-q2-update\arm-none-eabi\include\c++\6.3.1\bits\stl_algobase.h **** 
 108:c:\program files (x86)\gnu tools arm embedded\6 2017-q2-update\arm-none-eabi\include\c++\6.3.1\bits\stl_algobase.h ****   /**
 109:c:\program files (x86)\gnu tools arm embedded\6 2017-q2-update\arm-none-eabi\include\c++\6.3.1\bits\stl_algobase.h ****    *  @brief Swaps the contents of two iterators.
 110:c:\program files (x86)\gnu tools arm embedded\6 2017-q2-update\arm-none-eabi\include\c++\6.3.1\bits\stl_algobase.h ****    *  @ingroup mutating_algorithms
 111:c:\program files (x86)\gnu tools arm embedded\6 2017-q2-update\arm-none-eabi\include\c++\6.3.1\bits\stl_algobase.h ****    *  @param  __a  An iterator.
ARM GAS  C:\Users\anhqu\AppData\Local\Temp\ccsMGc75.s 			page 19


 112:c:\program files (x86)\gnu tools arm embedded\6 2017-q2-update\arm-none-eabi\include\c++\6.3.1\bits\stl_algobase.h ****    *  @param  __b  Another iterator.
 113:c:\program files (x86)\gnu tools arm embedded\6 2017-q2-update\arm-none-eabi\include\c++\6.3.1\bits\stl_algobase.h ****    *  @return   Nothing.
 114:c:\program files (x86)\gnu tools arm embedded\6 2017-q2-update\arm-none-eabi\include\c++\6.3.1\bits\stl_algobase.h ****    *
 115:c:\program files (x86)\gnu tools arm embedded\6 2017-q2-update\arm-none-eabi\include\c++\6.3.1\bits\stl_algobase.h ****    *  This function swaps the values pointed to by two iterators, not the
 116:c:\program files (x86)\gnu tools arm embedded\6 2017-q2-update\arm-none-eabi\include\c++\6.3.1\bits\stl_algobase.h ****    *  iterators themselves.
 117:c:\program files (x86)\gnu tools arm embedded\6 2017-q2-update\arm-none-eabi\include\c++\6.3.1\bits\stl_algobase.h ****   */
 118:c:\program files (x86)\gnu tools arm embedded\6 2017-q2-update\arm-none-eabi\include\c++\6.3.1\bits\stl_algobase.h ****   template<typename _ForwardIterator1, typename _ForwardIterator2>
 119:c:\program files (x86)\gnu tools arm embedded\6 2017-q2-update\arm-none-eabi\include\c++\6.3.1\bits\stl_algobase.h ****     inline void
 120:c:\program files (x86)\gnu tools arm embedded\6 2017-q2-update\arm-none-eabi\include\c++\6.3.1\bits\stl_algobase.h ****     iter_swap(_ForwardIterator1 __a, _ForwardIterator2 __b)
 121:c:\program files (x86)\gnu tools arm embedded\6 2017-q2-update\arm-none-eabi\include\c++\6.3.1\bits\stl_algobase.h ****     {
 122:c:\program files (x86)\gnu tools arm embedded\6 2017-q2-update\arm-none-eabi\include\c++\6.3.1\bits\stl_algobase.h ****       // concept requirements
 123:c:\program files (x86)\gnu tools arm embedded\6 2017-q2-update\arm-none-eabi\include\c++\6.3.1\bits\stl_algobase.h ****       __glibcxx_function_requires(_Mutable_ForwardIteratorConcept<
 124:c:\program files (x86)\gnu tools arm embedded\6 2017-q2-update\arm-none-eabi\include\c++\6.3.1\bits\stl_algobase.h **** 				  _ForwardIterator1>)
 125:c:\program files (x86)\gnu tools arm embedded\6 2017-q2-update\arm-none-eabi\include\c++\6.3.1\bits\stl_algobase.h ****       __glibcxx_function_requires(_Mutable_ForwardIteratorConcept<
 126:c:\program files (x86)\gnu tools arm embedded\6 2017-q2-update\arm-none-eabi\include\c++\6.3.1\bits\stl_algobase.h **** 				  _ForwardIterator2>)
 127:c:\program files (x86)\gnu tools arm embedded\6 2017-q2-update\arm-none-eabi\include\c++\6.3.1\bits\stl_algobase.h **** 
 128:c:\program files (x86)\gnu tools arm embedded\6 2017-q2-update\arm-none-eabi\include\c++\6.3.1\bits\stl_algobase.h **** #if __cplusplus < 201103L
 129:c:\program files (x86)\gnu tools arm embedded\6 2017-q2-update\arm-none-eabi\include\c++\6.3.1\bits\stl_algobase.h ****       typedef typename iterator_traits<_ForwardIterator1>::value_type
 130:c:\program files (x86)\gnu tools arm embedded\6 2017-q2-update\arm-none-eabi\include\c++\6.3.1\bits\stl_algobase.h **** 	_ValueType1;
 131:c:\program files (x86)\gnu tools arm embedded\6 2017-q2-update\arm-none-eabi\include\c++\6.3.1\bits\stl_algobase.h ****       typedef typename iterator_traits<_ForwardIterator2>::value_type
 132:c:\program files (x86)\gnu tools arm embedded\6 2017-q2-update\arm-none-eabi\include\c++\6.3.1\bits\stl_algobase.h **** 	_ValueType2;
 133:c:\program files (x86)\gnu tools arm embedded\6 2017-q2-update\arm-none-eabi\include\c++\6.3.1\bits\stl_algobase.h **** 
 134:c:\program files (x86)\gnu tools arm embedded\6 2017-q2-update\arm-none-eabi\include\c++\6.3.1\bits\stl_algobase.h ****       __glibcxx_function_requires(_ConvertibleConcept<_ValueType1,
 135:c:\program files (x86)\gnu tools arm embedded\6 2017-q2-update\arm-none-eabi\include\c++\6.3.1\bits\stl_algobase.h **** 				  _ValueType2>)
 136:c:\program files (x86)\gnu tools arm embedded\6 2017-q2-update\arm-none-eabi\include\c++\6.3.1\bits\stl_algobase.h ****       __glibcxx_function_requires(_ConvertibleConcept<_ValueType2,
 137:c:\program files (x86)\gnu tools arm embedded\6 2017-q2-update\arm-none-eabi\include\c++\6.3.1\bits\stl_algobase.h **** 				  _ValueType1>)
 138:c:\program files (x86)\gnu tools arm embedded\6 2017-q2-update\arm-none-eabi\include\c++\6.3.1\bits\stl_algobase.h **** 
 139:c:\program files (x86)\gnu tools arm embedded\6 2017-q2-update\arm-none-eabi\include\c++\6.3.1\bits\stl_algobase.h ****       typedef typename iterator_traits<_ForwardIterator1>::reference
 140:c:\program files (x86)\gnu tools arm embedded\6 2017-q2-update\arm-none-eabi\include\c++\6.3.1\bits\stl_algobase.h **** 	_ReferenceType1;
 141:c:\program files (x86)\gnu tools arm embedded\6 2017-q2-update\arm-none-eabi\include\c++\6.3.1\bits\stl_algobase.h ****       typedef typename iterator_traits<_ForwardIterator2>::reference
 142:c:\program files (x86)\gnu tools arm embedded\6 2017-q2-update\arm-none-eabi\include\c++\6.3.1\bits\stl_algobase.h **** 	_ReferenceType2;
 143:c:\program files (x86)\gnu tools arm embedded\6 2017-q2-update\arm-none-eabi\include\c++\6.3.1\bits\stl_algobase.h ****       std::__iter_swap<__are_same<_ValueType1, _ValueType2>::__value
 144:c:\program files (x86)\gnu tools arm embedded\6 2017-q2-update\arm-none-eabi\include\c++\6.3.1\bits\stl_algobase.h **** 	&& __are_same<_ValueType1&, _ReferenceType1>::__value
 145:c:\program files (x86)\gnu tools arm embedded\6 2017-q2-update\arm-none-eabi\include\c++\6.3.1\bits\stl_algobase.h **** 	&& __are_same<_ValueType2&, _ReferenceType2>::__value>::
 146:c:\program files (x86)\gnu tools arm embedded\6 2017-q2-update\arm-none-eabi\include\c++\6.3.1\bits\stl_algobase.h **** 	iter_swap(__a, __b);
 147:c:\program files (x86)\gnu tools arm embedded\6 2017-q2-update\arm-none-eabi\include\c++\6.3.1\bits\stl_algobase.h **** #else
 148:c:\program files (x86)\gnu tools arm embedded\6 2017-q2-update\arm-none-eabi\include\c++\6.3.1\bits\stl_algobase.h ****       swap(*__a, *__b);
 149:c:\program files (x86)\gnu tools arm embedded\6 2017-q2-update\arm-none-eabi\include\c++\6.3.1\bits\stl_algobase.h **** #endif
 150:c:\program files (x86)\gnu tools arm embedded\6 2017-q2-update\arm-none-eabi\include\c++\6.3.1\bits\stl_algobase.h ****     }
 151:c:\program files (x86)\gnu tools arm embedded\6 2017-q2-update\arm-none-eabi\include\c++\6.3.1\bits\stl_algobase.h **** 
 152:c:\program files (x86)\gnu tools arm embedded\6 2017-q2-update\arm-none-eabi\include\c++\6.3.1\bits\stl_algobase.h ****   /**
 153:c:\program files (x86)\gnu tools arm embedded\6 2017-q2-update\arm-none-eabi\include\c++\6.3.1\bits\stl_algobase.h ****    *  @brief Swap the elements of two sequences.
 154:c:\program files (x86)\gnu tools arm embedded\6 2017-q2-update\arm-none-eabi\include\c++\6.3.1\bits\stl_algobase.h ****    *  @ingroup mutating_algorithms
 155:c:\program files (x86)\gnu tools arm embedded\6 2017-q2-update\arm-none-eabi\include\c++\6.3.1\bits\stl_algobase.h ****    *  @param  __first1  A forward iterator.
 156:c:\program files (x86)\gnu tools arm embedded\6 2017-q2-update\arm-none-eabi\include\c++\6.3.1\bits\stl_algobase.h ****    *  @param  __last1   A forward iterator.
 157:c:\program files (x86)\gnu tools arm embedded\6 2017-q2-update\arm-none-eabi\include\c++\6.3.1\bits\stl_algobase.h ****    *  @param  __first2  A forward iterator.
 158:c:\program files (x86)\gnu tools arm embedded\6 2017-q2-update\arm-none-eabi\include\c++\6.3.1\bits\stl_algobase.h ****    *  @return   An iterator equal to @p first2+(last1-first1).
 159:c:\program files (x86)\gnu tools arm embedded\6 2017-q2-update\arm-none-eabi\include\c++\6.3.1\bits\stl_algobase.h ****    *
 160:c:\program files (x86)\gnu tools arm embedded\6 2017-q2-update\arm-none-eabi\include\c++\6.3.1\bits\stl_algobase.h ****    *  Swaps each element in the range @p [first1,last1) with the
 161:c:\program files (x86)\gnu tools arm embedded\6 2017-q2-update\arm-none-eabi\include\c++\6.3.1\bits\stl_algobase.h ****    *  corresponding element in the range @p [first2,(last1-first1)).
 162:c:\program files (x86)\gnu tools arm embedded\6 2017-q2-update\arm-none-eabi\include\c++\6.3.1\bits\stl_algobase.h ****    *  The ranges must not overlap.
 163:c:\program files (x86)\gnu tools arm embedded\6 2017-q2-update\arm-none-eabi\include\c++\6.3.1\bits\stl_algobase.h ****   */
 164:c:\program files (x86)\gnu tools arm embedded\6 2017-q2-update\arm-none-eabi\include\c++\6.3.1\bits\stl_algobase.h ****   template<typename _ForwardIterator1, typename _ForwardIterator2>
 165:c:\program files (x86)\gnu tools arm embedded\6 2017-q2-update\arm-none-eabi\include\c++\6.3.1\bits\stl_algobase.h ****     _ForwardIterator2
 166:c:\program files (x86)\gnu tools arm embedded\6 2017-q2-update\arm-none-eabi\include\c++\6.3.1\bits\stl_algobase.h ****     swap_ranges(_ForwardIterator1 __first1, _ForwardIterator1 __last1,
 167:c:\program files (x86)\gnu tools arm embedded\6 2017-q2-update\arm-none-eabi\include\c++\6.3.1\bits\stl_algobase.h **** 		_ForwardIterator2 __first2)
 168:c:\program files (x86)\gnu tools arm embedded\6 2017-q2-update\arm-none-eabi\include\c++\6.3.1\bits\stl_algobase.h ****     {
ARM GAS  C:\Users\anhqu\AppData\Local\Temp\ccsMGc75.s 			page 20


 169:c:\program files (x86)\gnu tools arm embedded\6 2017-q2-update\arm-none-eabi\include\c++\6.3.1\bits\stl_algobase.h ****       // concept requirements
 170:c:\program files (x86)\gnu tools arm embedded\6 2017-q2-update\arm-none-eabi\include\c++\6.3.1\bits\stl_algobase.h ****       __glibcxx_function_requires(_Mutable_ForwardIteratorConcept<
 171:c:\program files (x86)\gnu tools arm embedded\6 2017-q2-update\arm-none-eabi\include\c++\6.3.1\bits\stl_algobase.h **** 				  _ForwardIterator1>)
 172:c:\program files (x86)\gnu tools arm embedded\6 2017-q2-update\arm-none-eabi\include\c++\6.3.1\bits\stl_algobase.h ****       __glibcxx_function_requires(_Mutable_ForwardIteratorConcept<
 173:c:\program files (x86)\gnu tools arm embedded\6 2017-q2-update\arm-none-eabi\include\c++\6.3.1\bits\stl_algobase.h **** 				  _ForwardIterator2>)
 174:c:\program files (x86)\gnu tools arm embedded\6 2017-q2-update\arm-none-eabi\include\c++\6.3.1\bits\stl_algobase.h ****       __glibcxx_requires_valid_range(__first1, __last1);
 175:c:\program files (x86)\gnu tools arm embedded\6 2017-q2-update\arm-none-eabi\include\c++\6.3.1\bits\stl_algobase.h **** 
 176:c:\program files (x86)\gnu tools arm embedded\6 2017-q2-update\arm-none-eabi\include\c++\6.3.1\bits\stl_algobase.h ****       for (; __first1 != __last1; ++__first1, (void)++__first2)
 177:c:\program files (x86)\gnu tools arm embedded\6 2017-q2-update\arm-none-eabi\include\c++\6.3.1\bits\stl_algobase.h **** 	std::iter_swap(__first1, __first2);
 178:c:\program files (x86)\gnu tools arm embedded\6 2017-q2-update\arm-none-eabi\include\c++\6.3.1\bits\stl_algobase.h ****       return __first2;
 179:c:\program files (x86)\gnu tools arm embedded\6 2017-q2-update\arm-none-eabi\include\c++\6.3.1\bits\stl_algobase.h ****     }
 180:c:\program files (x86)\gnu tools arm embedded\6 2017-q2-update\arm-none-eabi\include\c++\6.3.1\bits\stl_algobase.h **** 
 181:c:\program files (x86)\gnu tools arm embedded\6 2017-q2-update\arm-none-eabi\include\c++\6.3.1\bits\stl_algobase.h ****   /**
 182:c:\program files (x86)\gnu tools arm embedded\6 2017-q2-update\arm-none-eabi\include\c++\6.3.1\bits\stl_algobase.h ****    *  @brief This does what you think it does.
 183:c:\program files (x86)\gnu tools arm embedded\6 2017-q2-update\arm-none-eabi\include\c++\6.3.1\bits\stl_algobase.h ****    *  @ingroup sorting_algorithms
 184:c:\program files (x86)\gnu tools arm embedded\6 2017-q2-update\arm-none-eabi\include\c++\6.3.1\bits\stl_algobase.h ****    *  @param  __a  A thing of arbitrary type.
 185:c:\program files (x86)\gnu tools arm embedded\6 2017-q2-update\arm-none-eabi\include\c++\6.3.1\bits\stl_algobase.h ****    *  @param  __b  Another thing of arbitrary type.
 186:c:\program files (x86)\gnu tools arm embedded\6 2017-q2-update\arm-none-eabi\include\c++\6.3.1\bits\stl_algobase.h ****    *  @return   The lesser of the parameters.
 187:c:\program files (x86)\gnu tools arm embedded\6 2017-q2-update\arm-none-eabi\include\c++\6.3.1\bits\stl_algobase.h ****    *
 188:c:\program files (x86)\gnu tools arm embedded\6 2017-q2-update\arm-none-eabi\include\c++\6.3.1\bits\stl_algobase.h ****    *  This is the simple classic generic implementation.  It will work on
 189:c:\program files (x86)\gnu tools arm embedded\6 2017-q2-update\arm-none-eabi\include\c++\6.3.1\bits\stl_algobase.h ****    *  temporary expressions, since they are only evaluated once, unlike a
 190:c:\program files (x86)\gnu tools arm embedded\6 2017-q2-update\arm-none-eabi\include\c++\6.3.1\bits\stl_algobase.h ****    *  preprocessor macro.
 191:c:\program files (x86)\gnu tools arm embedded\6 2017-q2-update\arm-none-eabi\include\c++\6.3.1\bits\stl_algobase.h ****   */
 192:c:\program files (x86)\gnu tools arm embedded\6 2017-q2-update\arm-none-eabi\include\c++\6.3.1\bits\stl_algobase.h ****   template<typename _Tp>
 193:c:\program files (x86)\gnu tools arm embedded\6 2017-q2-update\arm-none-eabi\include\c++\6.3.1\bits\stl_algobase.h ****     _GLIBCXX14_CONSTEXPR
 194:c:\program files (x86)\gnu tools arm embedded\6 2017-q2-update\arm-none-eabi\include\c++\6.3.1\bits\stl_algobase.h ****     inline const _Tp&
 195:c:\program files (x86)\gnu tools arm embedded\6 2017-q2-update\arm-none-eabi\include\c++\6.3.1\bits\stl_algobase.h ****     min(const _Tp& __a, const _Tp& __b)
 196:c:\program files (x86)\gnu tools arm embedded\6 2017-q2-update\arm-none-eabi\include\c++\6.3.1\bits\stl_algobase.h ****     {
 197:c:\program files (x86)\gnu tools arm embedded\6 2017-q2-update\arm-none-eabi\include\c++\6.3.1\bits\stl_algobase.h ****       // concept requirements
 198:c:\program files (x86)\gnu tools arm embedded\6 2017-q2-update\arm-none-eabi\include\c++\6.3.1\bits\stl_algobase.h ****       __glibcxx_function_requires(_LessThanComparableConcept<_Tp>)
 199:c:\program files (x86)\gnu tools arm embedded\6 2017-q2-update\arm-none-eabi\include\c++\6.3.1\bits\stl_algobase.h ****       //return __b < __a ? __b : __a;
 200:c:\program files (x86)\gnu tools arm embedded\6 2017-q2-update\arm-none-eabi\include\c++\6.3.1\bits\stl_algobase.h ****       if (__b < __a)
 201:c:\program files (x86)\gnu tools arm embedded\6 2017-q2-update\arm-none-eabi\include\c++\6.3.1\bits\stl_algobase.h **** 	return __b;
 202:c:\program files (x86)\gnu tools arm embedded\6 2017-q2-update\arm-none-eabi\include\c++\6.3.1\bits\stl_algobase.h ****       return __a;
 203:c:\program files (x86)\gnu tools arm embedded\6 2017-q2-update\arm-none-eabi\include\c++\6.3.1\bits\stl_algobase.h ****     }
 204:c:\program files (x86)\gnu tools arm embedded\6 2017-q2-update\arm-none-eabi\include\c++\6.3.1\bits\stl_algobase.h **** 
 205:c:\program files (x86)\gnu tools arm embedded\6 2017-q2-update\arm-none-eabi\include\c++\6.3.1\bits\stl_algobase.h ****   /**
 206:c:\program files (x86)\gnu tools arm embedded\6 2017-q2-update\arm-none-eabi\include\c++\6.3.1\bits\stl_algobase.h ****    *  @brief This does what you think it does.
 207:c:\program files (x86)\gnu tools arm embedded\6 2017-q2-update\arm-none-eabi\include\c++\6.3.1\bits\stl_algobase.h ****    *  @ingroup sorting_algorithms
 208:c:\program files (x86)\gnu tools arm embedded\6 2017-q2-update\arm-none-eabi\include\c++\6.3.1\bits\stl_algobase.h ****    *  @param  __a  A thing of arbitrary type.
 209:c:\program files (x86)\gnu tools arm embedded\6 2017-q2-update\arm-none-eabi\include\c++\6.3.1\bits\stl_algobase.h ****    *  @param  __b  Another thing of arbitrary type.
 210:c:\program files (x86)\gnu tools arm embedded\6 2017-q2-update\arm-none-eabi\include\c++\6.3.1\bits\stl_algobase.h ****    *  @return   The greater of the parameters.
 211:c:\program files (x86)\gnu tools arm embedded\6 2017-q2-update\arm-none-eabi\include\c++\6.3.1\bits\stl_algobase.h ****    *
 212:c:\program files (x86)\gnu tools arm embedded\6 2017-q2-update\arm-none-eabi\include\c++\6.3.1\bits\stl_algobase.h ****    *  This is the simple classic generic implementation.  It will work on
 213:c:\program files (x86)\gnu tools arm embedded\6 2017-q2-update\arm-none-eabi\include\c++\6.3.1\bits\stl_algobase.h ****    *  temporary expressions, since they are only evaluated once, unlike a
 214:c:\program files (x86)\gnu tools arm embedded\6 2017-q2-update\arm-none-eabi\include\c++\6.3.1\bits\stl_algobase.h ****    *  preprocessor macro.
 215:c:\program files (x86)\gnu tools arm embedded\6 2017-q2-update\arm-none-eabi\include\c++\6.3.1\bits\stl_algobase.h ****   */
 216:c:\program files (x86)\gnu tools arm embedded\6 2017-q2-update\arm-none-eabi\include\c++\6.3.1\bits\stl_algobase.h ****   template<typename _Tp>
 217:c:\program files (x86)\gnu tools arm embedded\6 2017-q2-update\arm-none-eabi\include\c++\6.3.1\bits\stl_algobase.h ****     _GLIBCXX14_CONSTEXPR
 218:c:\program files (x86)\gnu tools arm embedded\6 2017-q2-update\arm-none-eabi\include\c++\6.3.1\bits\stl_algobase.h ****     inline const _Tp&
 219:c:\program files (x86)\gnu tools arm embedded\6 2017-q2-update\arm-none-eabi\include\c++\6.3.1\bits\stl_algobase.h ****     max(const _Tp& __a, const _Tp& __b)
 470              		.loc 3 219 0
 471              		.cfi_startproc
 472              		@ Function supports interworking.
 473              		@ args = 0, pretend = 0, frame = 8
 474              		@ frame_needed = 0, uses_anonymous_args = 0
 475 0000 04E02DE5 		str	lr, [sp, #-4]!
ARM GAS  C:\Users\anhqu\AppData\Local\Temp\ccsMGc75.s 			page 21


 476              	.LCFI26:
 477              		.cfi_def_cfa_offset 4
 478              		.cfi_offset 14, -4
 479 0004 0CD04DE2 		sub	sp, sp, #12
 480              	.LCFI27:
 481              		.cfi_def_cfa_offset 16
 482 0008 04008DE5 		str	r0, [sp, #4]
 483 000c 00108DE5 		str	r1, [sp]
 220:c:\program files (x86)\gnu tools arm embedded\6 2017-q2-update\arm-none-eabi\include\c++\6.3.1\bits\stl_algobase.h ****     {
 221:c:\program files (x86)\gnu tools arm embedded\6 2017-q2-update\arm-none-eabi\include\c++\6.3.1\bits\stl_algobase.h ****       // concept requirements
 222:c:\program files (x86)\gnu tools arm embedded\6 2017-q2-update\arm-none-eabi\include\c++\6.3.1\bits\stl_algobase.h ****       __glibcxx_function_requires(_LessThanComparableConcept<_Tp>)
 223:c:\program files (x86)\gnu tools arm embedded\6 2017-q2-update\arm-none-eabi\include\c++\6.3.1\bits\stl_algobase.h ****       //return  __a < __b ? __b : __a;
 224:c:\program files (x86)\gnu tools arm embedded\6 2017-q2-update\arm-none-eabi\include\c++\6.3.1\bits\stl_algobase.h ****       if (__a < __b)
 484              		.loc 3 224 0
 485 0010 04309DE5 		ldr	r3, [sp, #4]
 486 0014 00209DE5 		ldr	r2, [sp]
 487 0018 0210A0E1 		mov	r1, r2
 488 001c 0300A0E1 		mov	r0, r3
 489 0020 FEFFFFEB 		bl	_ZN10primitivesltIjjEEbRKNS_9primitiveIT_NSt9enable_ifIXsrSt13is_arithmeticIS2_E5valueEvE4typeE
 490 0024 0030A0E1 		mov	r3, r0
 491 0028 000053E3 		cmp	r3, #0
 492 002c 0100000A 		beq	.L24
 225:c:\program files (x86)\gnu tools arm embedded\6 2017-q2-update\arm-none-eabi\include\c++\6.3.1\bits\stl_algobase.h **** 	return __b;
 493              		.loc 3 225 0
 494 0030 00309DE5 		ldr	r3, [sp]
 495 0034 000000EA 		b	.L25
 496              	.L24:
 226:c:\program files (x86)\gnu tools arm embedded\6 2017-q2-update\arm-none-eabi\include\c++\6.3.1\bits\stl_algobase.h ****       return __a;
 497              		.loc 3 226 0
 498 0038 04309DE5 		ldr	r3, [sp, #4]
 499              	.L25:
 227:c:\program files (x86)\gnu tools arm embedded\6 2017-q2-update\arm-none-eabi\include\c++\6.3.1\bits\stl_algobase.h ****     }
 500              		.loc 3 227 0
 501 003c 0300A0E1 		mov	r0, r3
 502 0040 0CD08DE2 		add	sp, sp, #12
 503              	.LCFI28:
 504              		.cfi_def_cfa_offset 4
 505              		@ sp needed
 506 0044 04E09DE4 		ldr	lr, [sp], #4
 507              	.LCFI29:
 508              		.cfi_restore 14
 509              		.cfi_def_cfa_offset 0
 510 0048 1EFF2FE1 		bx	lr
 511              		.cfi_endproc
 512              	.LFE924:
 513              		.cantunwind
 514              		.fnend
 515              		.size	_ZSt3maxIN10primitives17carried_primitiveEERKT_S4_S4_, .-_ZSt3maxIN10primitives17carried_pri
 516              		.section	.text._ZN10primitivesgtIjEEbRKNS_9primitiveIT_NSt9enable_ifIXsrSt13is_arithmeticIS2_E5val
 517              		.align	2
 518              		.weak	_ZN10primitivesgtIjEEbRKNS_9primitiveIT_NSt9enable_ifIXsrSt13is_arithmeticIS2_E5valueEvE4typ
 519              		.syntax unified
 520              		.arm
 521              		.fpu softvfp
 522              		.type	_ZN10primitivesgtIjEEbRKNS_9primitiveIT_NSt9enable_ifIXsrSt13is_arithmeticIS2_E5valueEvE4typ
 523              	_ZN10primitivesgtIjEEbRKNS_9primitiveIT_NSt9enable_ifIXsrSt13is_arithmeticIS2_E5valueEvE4typeEEERKS
 524              		.fnstart
ARM GAS  C:\Users\anhqu\AppData\Local\Temp\ccsMGc75.s 			page 22


 525              	.LFB926:
 383:primitive.hpp **** 
 384:primitive.hpp **** template<typename T>
 385:primitive.hpp **** constexpr bool operator<=(primitive<T> const& lhs, T const& rhs) noexcept {
 386:primitive.hpp ****     return lhs.get() <= rhs;
 387:primitive.hpp **** }
 388:primitive.hpp **** template<typename T>
 389:primitive.hpp **** constexpr bool operator<=(T const& lhs, primitive<T> const& rhs) noexcept {
 390:primitive.hpp ****     return lhs <= rhs.get();
 391:primitive.hpp **** }
 392:primitive.hpp **** template<typename T1, typename T2>
 393:primitive.hpp **** constexpr bool operator<=(primitive<T1> const& lhs, primitive<T2> const& rhs) noexcept {
 394:primitive.hpp ****     return lhs.get() <= rhs.get();
 395:primitive.hpp **** }
 396:primitive.hpp **** 
 397:primitive.hpp **** template<typename T>
 398:primitive.hpp **** constexpr bool operator>(primitive<T> const& lhs, T const& rhs) noexcept {
 526              		.loc 1 398 0
 527              		.cfi_startproc
 528              		@ Function supports interworking.
 529              		@ args = 0, pretend = 0, frame = 8
 530              		@ frame_needed = 0, uses_anonymous_args = 0
 531 0000 04E02DE5 		str	lr, [sp, #-4]!
 532              	.LCFI30:
 533              		.cfi_def_cfa_offset 4
 534              		.cfi_offset 14, -4
 535 0004 0CD04DE2 		sub	sp, sp, #12
 536              	.LCFI31:
 537              		.cfi_def_cfa_offset 16
 538 0008 04008DE5 		str	r0, [sp, #4]
 539 000c 00108DE5 		str	r1, [sp]
 399:primitive.hpp ****     return lhs.get() > rhs;
 540              		.loc 1 399 0
 541 0010 04009DE5 		ldr	r0, [sp, #4]
 542 0014 FEFFFFEB 		bl	_ZNK10primitives9primitiveIjvE3getEv
 543 0018 0030A0E1 		mov	r3, r0
 544 001c 002093E5 		ldr	r2, [r3]
 545 0020 00309DE5 		ldr	r3, [sp]
 546 0024 003093E5 		ldr	r3, [r3]
 547 0028 030052E1 		cmp	r2, r3
 548 002c 0130A083 		movhi	r3, #1
 549 0030 0030A093 		movls	r3, #0
 550 0034 FF3003E2 		and	r3, r3, #255
 400:primitive.hpp **** }
 551              		.loc 1 400 0
 552 0038 0300A0E1 		mov	r0, r3
 553 003c 0CD08DE2 		add	sp, sp, #12
 554              	.LCFI32:
 555              		.cfi_def_cfa_offset 4
 556              		@ sp needed
 557 0040 04E09DE4 		ldr	lr, [sp], #4
 558              	.LCFI33:
 559              		.cfi_restore 14
 560              		.cfi_def_cfa_offset 0
 561 0044 1EFF2FE1 		bx	lr
 562              		.cfi_endproc
 563              	.LFE926:
ARM GAS  C:\Users\anhqu\AppData\Local\Temp\ccsMGc75.s 			page 23


 564              		.cantunwind
 565              		.fnend
 566              		.size	_ZN10primitivesgtIjEEbRKNS_9primitiveIT_NSt9enable_ifIXsrSt13is_arithmeticIS2_E5valueEvE4typ
 567              		.section	.text._ZSt3minIN10primitives17carried_primitiveEERKT_S4_S4_,"axG",%progbits,_ZSt3minIN10p
 568              		.align	2
 569              		.weak	_ZSt3minIN10primitives17carried_primitiveEERKT_S4_S4_
 570              		.syntax unified
 571              		.arm
 572              		.fpu softvfp
 573              		.type	_ZSt3minIN10primitives17carried_primitiveEERKT_S4_S4_, %function
 574              	_ZSt3minIN10primitives17carried_primitiveEERKT_S4_S4_:
 575              		.fnstart
 576              	.LFB927:
 195:c:\program files (x86)\gnu tools arm embedded\6 2017-q2-update\arm-none-eabi\include\c++\6.3.1\bits\stl_algobase.h ****     {
 577              		.loc 3 195 0
 578              		.cfi_startproc
 579              		@ Function supports interworking.
 580              		@ args = 0, pretend = 0, frame = 8
 581              		@ frame_needed = 0, uses_anonymous_args = 0
 582 0000 04E02DE5 		str	lr, [sp, #-4]!
 583              	.LCFI34:
 584              		.cfi_def_cfa_offset 4
 585              		.cfi_offset 14, -4
 586 0004 0CD04DE2 		sub	sp, sp, #12
 587              	.LCFI35:
 588              		.cfi_def_cfa_offset 16
 589 0008 04008DE5 		str	r0, [sp, #4]
 590 000c 00108DE5 		str	r1, [sp]
 200:c:\program files (x86)\gnu tools arm embedded\6 2017-q2-update\arm-none-eabi\include\c++\6.3.1\bits\stl_algobase.h **** 	return __b;
 591              		.loc 3 200 0
 592 0010 00309DE5 		ldr	r3, [sp]
 593 0014 04209DE5 		ldr	r2, [sp, #4]
 594 0018 0210A0E1 		mov	r1, r2
 595 001c 0300A0E1 		mov	r0, r3
 596 0020 FEFFFFEB 		bl	_ZN10primitivesltIjjEEbRKNS_9primitiveIT_NSt9enable_ifIXsrSt13is_arithmeticIS2_E5valueEvE4typeE
 597 0024 0030A0E1 		mov	r3, r0
 598 0028 000053E3 		cmp	r3, #0
 599 002c 0100000A 		beq	.L29
 201:c:\program files (x86)\gnu tools arm embedded\6 2017-q2-update\arm-none-eabi\include\c++\6.3.1\bits\stl_algobase.h ****       return __a;
 600              		.loc 3 201 0
 601 0030 00309DE5 		ldr	r3, [sp]
 602 0034 000000EA 		b	.L30
 603              	.L29:
 202:c:\program files (x86)\gnu tools arm embedded\6 2017-q2-update\arm-none-eabi\include\c++\6.3.1\bits\stl_algobase.h ****     }
 604              		.loc 3 202 0
 605 0038 04309DE5 		ldr	r3, [sp, #4]
 606              	.L30:
 203:c:\program files (x86)\gnu tools arm embedded\6 2017-q2-update\arm-none-eabi\include\c++\6.3.1\bits\stl_algobase.h **** 
 607              		.loc 3 203 0
 608 003c 0300A0E1 		mov	r0, r3
 609 0040 0CD08DE2 		add	sp, sp, #12
 610              	.LCFI36:
 611              		.cfi_def_cfa_offset 4
 612              		@ sp needed
 613 0044 04E09DE4 		ldr	lr, [sp], #4
 614              	.LCFI37:
 615              		.cfi_restore 14
ARM GAS  C:\Users\anhqu\AppData\Local\Temp\ccsMGc75.s 			page 24


 616              		.cfi_def_cfa_offset 0
 617 0048 1EFF2FE1 		bx	lr
 618              		.cfi_endproc
 619              	.LFE927:
 620              		.cantunwind
 621              		.fnend
 622              		.size	_ZSt3minIN10primitives17carried_primitiveEERKT_S4_S4_, .-_ZSt3minIN10primitives17carried_pri
 623              		.section	.text._ZN10primitivesleIjEEbRKT_RKNS_9primitiveIS1_NSt9enable_ifIXsrSt13is_arithmeticIS1_
 624              		.align	2
 625              		.weak	_ZN10primitivesleIjEEbRKT_RKNS_9primitiveIS1_NSt9enable_ifIXsrSt13is_arithmeticIS1_E5valueEv
 626              		.syntax unified
 627              		.arm
 628              		.fpu softvfp
 629              		.type	_ZN10primitivesleIjEEbRKT_RKNS_9primitiveIS1_NSt9enable_ifIXsrSt13is_arithmeticIS1_E5valueEv
 630              	_ZN10primitivesleIjEEbRKT_RKNS_9primitiveIS1_NSt9enable_ifIXsrSt13is_arithmeticIS1_E5valueEvE4typeE
 631              		.fnstart
 632              	.LFB928:
 389:primitive.hpp ****     return lhs <= rhs.get();
 633              		.loc 1 389 0
 634              		.cfi_startproc
 635              		@ Function supports interworking.
 636              		@ args = 0, pretend = 0, frame = 8
 637              		@ frame_needed = 0, uses_anonymous_args = 0
 638 0000 10402DE9 		push	{r4, lr}
 639              	.LCFI38:
 640              		.cfi_def_cfa_offset 8
 641              		.cfi_offset 4, -8
 642              		.cfi_offset 14, -4
 643 0004 08D04DE2 		sub	sp, sp, #8
 644              	.LCFI39:
 645              		.cfi_def_cfa_offset 16
 646 0008 04008DE5 		str	r0, [sp, #4]
 647 000c 00108DE5 		str	r1, [sp]
 390:primitive.hpp **** }
 648              		.loc 1 390 0
 649 0010 04309DE5 		ldr	r3, [sp, #4]
 650 0014 004093E5 		ldr	r4, [r3]
 651 0018 00009DE5 		ldr	r0, [sp]
 652 001c FEFFFFEB 		bl	_ZNK10primitives9primitiveIjvE3getEv
 653 0020 0030A0E1 		mov	r3, r0
 654 0024 003093E5 		ldr	r3, [r3]
 655 0028 030054E1 		cmp	r4, r3
 656 002c 0130A093 		movls	r3, #1
 657 0030 0030A083 		movhi	r3, #0
 658 0034 FF3003E2 		and	r3, r3, #255
 391:primitive.hpp **** template<typename T1, typename T2>
 659              		.loc 1 391 0
 660 0038 0300A0E1 		mov	r0, r3
 661 003c 08D08DE2 		add	sp, sp, #8
 662              	.LCFI40:
 663              		.cfi_def_cfa_offset 8
 664              		@ sp needed
 665 0040 1040BDE8 		pop	{r4, lr}
 666              	.LCFI41:
 667              		.cfi_restore 14
 668              		.cfi_restore 4
 669              		.cfi_def_cfa_offset 0
ARM GAS  C:\Users\anhqu\AppData\Local\Temp\ccsMGc75.s 			page 25


 670 0044 1EFF2FE1 		bx	lr
 671              		.cfi_endproc
 672              	.LFE928:
 673              		.cantunwind
 674              		.fnend
 675              		.size	_ZN10primitivesleIjEEbRKT_RKNS_9primitiveIS1_NSt9enable_ifIXsrSt13is_arithmeticIS1_E5valueEv
 676              		.section	.text._ZN10primitivesneIjEEbRKNS_9primitiveIT_NSt9enable_ifIXsrSt13is_arithmeticIS2_E5val
 677              		.align	2
 678              		.weak	_ZN10primitivesneIjEEbRKNS_9primitiveIT_NSt9enable_ifIXsrSt13is_arithmeticIS2_E5valueEvE4typ
 679              		.syntax unified
 680              		.arm
 681              		.fpu softvfp
 682              		.type	_ZN10primitivesneIjEEbRKNS_9primitiveIT_NSt9enable_ifIXsrSt13is_arithmeticIS2_E5valueEvE4typ
 683              	_ZN10primitivesneIjEEbRKNS_9primitiveIT_NSt9enable_ifIXsrSt13is_arithmeticIS2_E5valueEvE4typeEEERKS
 684              		.fnstart
 685              	.LFB929:
 359:primitive.hpp ****     return lhs.get() != rhs;
 686              		.loc 1 359 0
 687              		.cfi_startproc
 688              		@ Function supports interworking.
 689              		@ args = 0, pretend = 0, frame = 8
 690              		@ frame_needed = 0, uses_anonymous_args = 0
 691 0000 04E02DE5 		str	lr, [sp, #-4]!
 692              	.LCFI42:
 693              		.cfi_def_cfa_offset 4
 694              		.cfi_offset 14, -4
 695 0004 0CD04DE2 		sub	sp, sp, #12
 696              	.LCFI43:
 697              		.cfi_def_cfa_offset 16
 698 0008 04008DE5 		str	r0, [sp, #4]
 699 000c 00108DE5 		str	r1, [sp]
 360:primitive.hpp **** }
 700              		.loc 1 360 0
 701 0010 04009DE5 		ldr	r0, [sp, #4]
 702 0014 FEFFFFEB 		bl	_ZNK10primitives9primitiveIjvE3getEv
 703 0018 0030A0E1 		mov	r3, r0
 704 001c 002093E5 		ldr	r2, [r3]
 705 0020 00309DE5 		ldr	r3, [sp]
 706 0024 003093E5 		ldr	r3, [r3]
 707 0028 030052E1 		cmp	r2, r3
 708 002c 0130A013 		movne	r3, #1
 709 0030 0030A003 		moveq	r3, #0
 710 0034 FF3003E2 		and	r3, r3, #255
 361:primitive.hpp **** template<typename T>
 711              		.loc 1 361 0
 712 0038 0300A0E1 		mov	r0, r3
 713 003c 0CD08DE2 		add	sp, sp, #12
 714              	.LCFI44:
 715              		.cfi_def_cfa_offset 4
 716              		@ sp needed
 717 0040 04E09DE4 		ldr	lr, [sp], #4
 718              	.LCFI45:
 719              		.cfi_restore 14
 720              		.cfi_def_cfa_offset 0
 721 0044 1EFF2FE1 		bx	lr
 722              		.cfi_endproc
 723              	.LFE929:
ARM GAS  C:\Users\anhqu\AppData\Local\Temp\ccsMGc75.s 			page 26


 724              		.cantunwind
 725              		.fnend
 726              		.size	_ZN10primitivesneIjEEbRKNS_9primitiveIT_NSt9enable_ifIXsrSt13is_arithmeticIS2_E5valueEvE4typ
 727              		.text
 728              		.align	2
 729              		.global	bigAdd
 730              		.syntax unified
 731              		.arm
 732              		.fpu softvfp
 733              		.type	bigAdd, %function
 734              	bigAdd:
 735              		.fnstart
 736              	.LFB923:
 737              		.file 4 "bigAdd.cpp"
   1:bigAdd.cpp    **** // Copyright (c) Craig Scratchley 2020   wcs (AT) sfu (DOT) ca
   2:bigAdd.cpp    **** #include <algorithm> // for std::min/max
   3:bigAdd.cpp    **** #include "carried_primitive.hpp"
   4:bigAdd.cpp    **** 
   5:bigAdd.cpp    **** using primitives::carry;
   6:bigAdd.cpp    **** using UInt = primitives::carried_primitive;
   7:bigAdd.cpp    **** using std::min;
   8:bigAdd.cpp    **** using std::max;
   9:bigAdd.cpp    **** 
  10:bigAdd.cpp    **** //typedef unsigned int bigNumN[];
  11:bigAdd.cpp    **** typedef UInt bigNumN[];
  12:bigAdd.cpp    **** 
  13:bigAdd.cpp    **** // use a C interface to simplify calling the code from assembly.
  14:bigAdd.cpp    **** extern "C" int bigAdd(bigNumN bigN0PC, const bigNumN bigN1PC, unsigned int maxN0Size);
  15:bigAdd.cpp    **** 
  16:bigAdd.cpp    **** // c++ code involving access to a simulated carry flag
  17:bigAdd.cpp    **** // returns -1 for error in inputs, 1 if overflow/carry-out and 0 if no overflow/carry-out
  18:bigAdd.cpp    **** int bigAdd(bigNumN bigN0P, const bigNumN bigN1P, unsigned int maxN0Size)
  19:bigAdd.cpp    **** {
 738              		.loc 4 19 0
 739              		.cfi_startproc
 740              		@ Function supports interworking.
 741              		@ args = 0, pretend = 0, frame = 32
 742              		@ frame_needed = 0, uses_anonymous_args = 0
 743 0000 10402DE9 		push	{r4, lr}
 744              	.LCFI46:
 745              		.cfi_def_cfa_offset 8
 746              		.cfi_offset 4, -8
 747              		.cfi_offset 14, -4
 748 0004 20D04DE2 		sub	sp, sp, #32
 749              	.LCFI47:
 750              		.cfi_def_cfa_offset 40
 751 0008 0C008DE5 		str	r0, [sp, #12]
 752 000c 08108DE5 		str	r1, [sp, #8]
 753 0010 04208DE5 		str	r2, [sp, #4]
  20:bigAdd.cpp    **** #define sizeBigN0P  bigN0P[0]
  21:bigAdd.cpp    **** #define sizeBigN1P  bigN1P[0]
  22:bigAdd.cpp    **** 
  23:bigAdd.cpp    **** 	unsigned index;
  24:bigAdd.cpp    **** 
  25:bigAdd.cpp    **** 	// global variable in primitives namespace
  26:bigAdd.cpp    **** 	carry = 0; // this is a global variable representing the carry flag.
 754              		.loc 4 26 0
ARM GAS  C:\Users\anhqu\AppData\Local\Temp\ccsMGc75.s 			page 27


 755 0014 54329FE5 		ldr	r3, .L47
 756 0018 0020A0E3 		mov	r2, #0
 757 001c 002083E5 		str	r2, [r3]
  27:bigAdd.cpp    **** 
  28:bigAdd.cpp    **** 	if (max(sizeBigN0P, sizeBigN1P) > maxN0Size)
 758              		.loc 4 28 0
 759 0020 08109DE5 		ldr	r1, [sp, #8]
 760 0024 0C009DE5 		ldr	r0, [sp, #12]
 761 0028 FEFFFFEB 		bl	_ZSt3maxIN10primitives17carried_primitiveEERKT_S4_S4_
 762 002c 0030A0E1 		mov	r3, r0
 763 0030 0320A0E1 		mov	r2, r3
 764 0034 04308DE2 		add	r3, sp, #4
 765 0038 0310A0E1 		mov	r1, r3
 766 003c 0200A0E1 		mov	r0, r2
 767 0040 FEFFFFEB 		bl	_ZN10primitivesgtIjEEbRKNS_9primitiveIT_NSt9enable_ifIXsrSt13is_arithmeticIS2_E5valueEvE4typeEE
 768 0044 0030A0E1 		mov	r3, r0
 769 0048 000053E3 		cmp	r3, #0
 770 004c 0100000A 		beq	.L36
  29:bigAdd.cpp    **** 		return -1; // error condition
 771              		.loc 4 29 0
 772 0050 0030E0E3 		mvn	r3, #0
 773 0054 810000EA 		b	.L46
 774              	.L36:
 775              	.LBB4:
  30:bigAdd.cpp    **** 	for (index=1; index <= min(sizeBigN0P, sizeBigN1P); ++index) {
 776              		.loc 4 30 0
 777 0058 0130A0E3 		mov	r3, #1
 778 005c 14308DE5 		str	r3, [sp, #20]
 779              	.L39:
 780              		.loc 4 30 0 is_stmt 0 discriminator 3
 781 0060 08109DE5 		ldr	r1, [sp, #8]
 782 0064 0C009DE5 		ldr	r0, [sp, #12]
 783 0068 FEFFFFEB 		bl	_ZSt3minIN10primitives17carried_primitiveEERKT_S4_S4_
 784 006c 0030A0E1 		mov	r3, r0
 785 0070 0320A0E1 		mov	r2, r3
 786 0074 14308DE2 		add	r3, sp, #20
 787 0078 0210A0E1 		mov	r1, r2
 788 007c 0300A0E1 		mov	r0, r3
 789 0080 FEFFFFEB 		bl	_ZN10primitivesleIjEEbRKT_RKNS_9primitiveIS1_NSt9enable_ifIXsrSt13is_arithmeticIS1_E5valueEvE4t
 790 0084 0030A0E1 		mov	r3, r0
 791 0088 000053E3 		cmp	r3, #0
 792 008c 1D00000A 		beq	.L38
 793              	.LBB5:
  31:bigAdd.cpp    **** 		// bigN0P[index] += bigN1P[index] + carry; // this line would end up in C++ as 2 "additions": +, 
  32:bigAdd.cpp    **** 		UInt intermediate = bigN1P[index] + carry; // should update carry
 794              		.loc 4 32 0 is_stmt 1 discriminator 2
 795 0090 14309DE5 		ldr	r3, [sp, #20]
 796 0094 0331A0E1 		lsl	r3, r3, #2
 797 0098 08209DE5 		ldr	r2, [sp, #8]
 798 009c 033082E0 		add	r3, r2, r3
 799 00a0 C8119FE5 		ldr	r1, .L47
 800 00a4 0300A0E1 		mov	r0, r3
 801 00a8 FEFFFFEB 		bl	_ZN10primitivesplERKNS_17carried_primitiveERKj
 802 00ac 0030A0E1 		mov	r3, r0
 803 00b0 10308DE5 		str	r3, [sp, #16]
  33:bigAdd.cpp    **** 		unsigned carryHold = carry; 	// hold the carry status resulting from adding the carry
 804              		.loc 4 33 0 discriminator 2
ARM GAS  C:\Users\anhqu\AppData\Local\Temp\ccsMGc75.s 			page 28


 805 00b4 B4319FE5 		ldr	r3, .L47
 806 00b8 003093E5 		ldr	r3, [r3]
 807 00bc 1C308DE5 		str	r3, [sp, #28]
  34:bigAdd.cpp    **** 		bigN0P[index] += intermediate; 	// should update carry
 808              		.loc 4 34 0 discriminator 2
 809 00c0 14309DE5 		ldr	r3, [sp, #20]
 810 00c4 0331A0E1 		lsl	r3, r3, #2
 811 00c8 0C209DE5 		ldr	r2, [sp, #12]
 812 00cc 033082E0 		add	r3, r2, r3
 813 00d0 10208DE2 		add	r2, sp, #16
 814 00d4 0210A0E1 		mov	r1, r2
 815 00d8 0300A0E1 		mov	r0, r3
 816 00dc FEFFFFEB 		bl	_ZN10primitives17carried_primitivepLERKS0_
  35:bigAdd.cpp    **** 		carry |= carryHold; 			// carry should also be set if carryHold is 1
 817              		.loc 4 35 0 discriminator 2
 818 00e0 88319FE5 		ldr	r3, .L47
 819 00e4 002093E5 		ldr	r2, [r3]
 820 00e8 1C309DE5 		ldr	r3, [sp, #28]
 821 00ec 033082E1 		orr	r3, r2, r3
 822 00f0 78219FE5 		ldr	r2, .L47
 823 00f4 003082E5 		str	r3, [r2]
 824              	.LBE5:
  30:bigAdd.cpp    **** 		// bigN0P[index] += bigN1P[index] + carry; // this line would end up in C++ as 2 "additions": +, 
 825              		.loc 4 30 0 discriminator 2
 826 00f8 14309DE5 		ldr	r3, [sp, #20]
 827 00fc 013083E2 		add	r3, r3, #1
 828 0100 14308DE5 		str	r3, [sp, #20]
 829 0104 D5FFFFEA 		b	.L39
 830              	.L38:
 831              	.LBE4:
  36:bigAdd.cpp    **** 	};
  37:bigAdd.cpp    **** 
  38:bigAdd.cpp    **** 	if (sizeBigN0P < sizeBigN1P) {
 832              		.loc 4 38 0
 833 0108 0C309DE5 		ldr	r3, [sp, #12]
 834 010c 08209DE5 		ldr	r2, [sp, #8]
 835 0110 0210A0E1 		mov	r1, r2
 836 0114 0300A0E1 		mov	r0, r3
 837 0118 FEFFFFEB 		bl	_ZN10primitivesltIjjEEbRKNS_9primitiveIT_NSt9enable_ifIXsrSt13is_arithmeticIS2_E5valueEvE4typeE
 838 011c 0030A0E1 		mov	r3, r0
 839 0120 000053E3 		cmp	r3, #0
 840 0124 1D00000A 		beq	.L40
 841              	.L42:
  39:bigAdd.cpp    **** 		for (; index <= sizeBigN1P; ++index)
 842              		.loc 4 39 0 discriminator 2
 843 0128 08209DE5 		ldr	r2, [sp, #8]
 844 012c 14308DE2 		add	r3, sp, #20
 845 0130 0210A0E1 		mov	r1, r2
 846 0134 0300A0E1 		mov	r0, r3
 847 0138 FEFFFFEB 		bl	_ZN10primitivesleIjEEbRKT_RKNS_9primitiveIS1_NSt9enable_ifIXsrSt13is_arithmeticIS1_E5valueEvE4t
 848 013c 0030A0E1 		mov	r3, r0
 849 0140 000053E3 		cmp	r3, #0
 850 0144 1000000A 		beq	.L41
  40:bigAdd.cpp    **** 			bigN0P[index] = bigN1P[index] + carry; // should update carry (adcs ...)
 851              		.loc 4 40 0 discriminator 1
 852 0148 14309DE5 		ldr	r3, [sp, #20]
 853 014c 0331A0E1 		lsl	r3, r3, #2
ARM GAS  C:\Users\anhqu\AppData\Local\Temp\ccsMGc75.s 			page 29


 854 0150 0C209DE5 		ldr	r2, [sp, #12]
 855 0154 034082E0 		add	r4, r2, r3
 856 0158 14309DE5 		ldr	r3, [sp, #20]
 857 015c 0331A0E1 		lsl	r3, r3, #2
 858 0160 08209DE5 		ldr	r2, [sp, #8]
 859 0164 033082E0 		add	r3, r2, r3
 860 0168 00119FE5 		ldr	r1, .L47
 861 016c 0300A0E1 		mov	r0, r3
 862 0170 FEFFFFEB 		bl	_ZN10primitivesplERKNS_17carried_primitiveERKj
 863 0174 0030A0E1 		mov	r3, r0
 864 0178 003084E5 		str	r3, [r4]
  39:bigAdd.cpp    **** 		for (; index <= sizeBigN1P; ++index)
 865              		.loc 4 39 0 discriminator 1
 866 017c 14309DE5 		ldr	r3, [sp, #20]
 867 0180 013083E2 		add	r3, r3, #1
 868 0184 14308DE5 		str	r3, [sp, #20]
 869 0188 E6FFFFEA 		b	.L42
 870              	.L41:
  41:bigAdd.cpp    **** 		sizeBigN0P = sizeBigN1P;
 871              		.loc 4 41 0
 872 018c 0C309DE5 		ldr	r3, [sp, #12]
 873 0190 08209DE5 		ldr	r2, [sp, #8]
 874 0194 002092E5 		ldr	r2, [r2]
 875 0198 002083E5 		str	r2, [r3]
 876 019c 180000EA 		b	.L43
 877              	.L40:
  42:bigAdd.cpp    **** 	}
  43:bigAdd.cpp    **** 	else
  44:bigAdd.cpp    **** 		for (; index <= sizeBigN0P; ++index)
 878              		.loc 4 44 0 discriminator 1
 879 01a0 0C209DE5 		ldr	r2, [sp, #12]
 880 01a4 14308DE2 		add	r3, sp, #20
 881 01a8 0210A0E1 		mov	r1, r2
 882 01ac 0300A0E1 		mov	r0, r3
 883 01b0 FEFFFFEB 		bl	_ZN10primitivesleIjEEbRKT_RKNS_9primitiveIS1_NSt9enable_ifIXsrSt13is_arithmeticIS1_E5valueEvE4t
 884 01b4 0030A0E1 		mov	r3, r0
 885 01b8 000053E3 		cmp	r3, #0
 886 01bc 1000000A 		beq	.L43
  45:bigAdd.cpp    **** 			if (!carry)
 887              		.loc 4 45 0
 888 01c0 A8309FE5 		ldr	r3, .L47
 889 01c4 003093E5 		ldr	r3, [r3]
 890 01c8 000053E3 		cmp	r3, #0
 891 01cc 0100001A 		bne	.L44
  46:bigAdd.cpp    **** 				return 0;
 892              		.loc 4 46 0
 893 01d0 0030A0E3 		mov	r3, #0
 894 01d4 210000EA 		b	.L46
 895              	.L44:
  47:bigAdd.cpp    **** 			else
  48:bigAdd.cpp    **** 				bigN0P[index] += carry; // should update carry (adcs ...)
 896              		.loc 4 48 0
 897 01d8 14309DE5 		ldr	r3, [sp, #20]
 898 01dc 0331A0E1 		lsl	r3, r3, #2
 899 01e0 0C209DE5 		ldr	r2, [sp, #12]
 900 01e4 033082E0 		add	r3, r2, r3
 901 01e8 80109FE5 		ldr	r1, .L47
ARM GAS  C:\Users\anhqu\AppData\Local\Temp\ccsMGc75.s 			page 30


 902 01ec 0300A0E1 		mov	r0, r3
 903 01f0 FEFFFFEB 		bl	_ZN10primitives17carried_primitivepLERKj
  44:bigAdd.cpp    **** 			if (!carry)
 904              		.loc 4 44 0
 905 01f4 14309DE5 		ldr	r3, [sp, #20]
 906 01f8 013083E2 		add	r3, r3, #1
 907 01fc 14308DE5 		str	r3, [sp, #20]
 908 0200 E6FFFFEA 		b	.L40
 909              	.L43:
  49:bigAdd.cpp    **** 
  50:bigAdd.cpp    **** 	if (sizeBigN0P != maxN0Size) {
 910              		.loc 4 50 0
 911 0204 0C309DE5 		ldr	r3, [sp, #12]
 912 0208 04208DE2 		add	r2, sp, #4
 913 020c 0210A0E1 		mov	r1, r2
 914 0210 0300A0E1 		mov	r0, r3
 915 0214 FEFFFFEB 		bl	_ZN10primitivesneIjEEbRKNS_9primitiveIT_NSt9enable_ifIXsrSt13is_arithmeticIS2_E5valueEvE4typeEE
 916 0218 0030A0E1 		mov	r3, r0
 917 021c 000053E3 		cmp	r3, #0
 918 0220 0C00000A 		beq	.L45
  51:bigAdd.cpp    **** 		bigN0P[index] = carry;
 919              		.loc 4 51 0
 920 0224 14309DE5 		ldr	r3, [sp, #20]
 921 0228 0331A0E1 		lsl	r3, r3, #2
 922 022c 0C209DE5 		ldr	r2, [sp, #12]
 923 0230 034082E0 		add	r4, r2, r3
 924 0234 18308DE2 		add	r3, sp, #24
 925 0238 30109FE5 		ldr	r1, .L47
 926 023c 0300A0E1 		mov	r0, r3
 927 0240 FEFFFFEB 		bl	_ZN10primitives17carried_primitiveC1IjvEERKT_
 928 0244 18309DE5 		ldr	r3, [sp, #24]
 929 0248 003084E5 		str	r3, [r4]
  52:bigAdd.cpp    **** 		sizeBigN0P += carry; // carry will be cleared
 930              		.loc 4 52 0
 931 024c 1C109FE5 		ldr	r1, .L47
 932 0250 0C009DE5 		ldr	r0, [sp, #12]
 933 0254 FEFFFFEB 		bl	_ZN10primitives17carried_primitivepLERKj
 934              	.L45:
  53:bigAdd.cpp    **** 	}
  54:bigAdd.cpp    **** 	return carry;
 935              		.loc 4 54 0
 936 0258 10309FE5 		ldr	r3, .L47
 937 025c 003093E5 		ldr	r3, [r3]
 938              	.L46:
  55:bigAdd.cpp    **** }
 939              		.loc 4 55 0 discriminator 1
 940 0260 0300A0E1 		mov	r0, r3
 941 0264 20D08DE2 		add	sp, sp, #32
 942              	.LCFI48:
 943              		.cfi_def_cfa_offset 8
 944              		@ sp needed
 945 0268 1040BDE8 		pop	{r4, lr}
 946              	.LCFI49:
 947              		.cfi_restore 14
 948              		.cfi_restore 4
 949              		.cfi_def_cfa_offset 0
 950 026c 1EFF2FE1 		bx	lr
ARM GAS  C:\Users\anhqu\AppData\Local\Temp\ccsMGc75.s 			page 31


 951              	.L48:
 952              		.align	2
 953              	.L47:
 954 0270 00000000 		.word	_ZN10primitives5carryE
 955              		.cfi_endproc
 956              	.LFE923:
 957              		.cantunwind
 958              		.fnend
 959              		.size	bigAdd, .-bigAdd
 960              	.Letext0:
 961              		.file 5 "c:\\program files (x86)\\gnu tools arm embedded\\6 2017-q2-update\\arm-none-eabi\\include
 962              		.file 6 "c:\\program files (x86)\\gnu tools arm embedded\\6 2017-q2-update\\arm-none-eabi\\include
 963              		.file 7 "c:\\program files (x86)\\gnu tools arm embedded\\6 2017-q2-update\\arm-none-eabi\\include
 964              		.file 8 "c:\\program files (x86)\\gnu tools arm embedded\\6 2017-q2-update\\arm-none-eabi\\include
 965              		.file 9 "c:\\program files (x86)\\gnu tools arm embedded\\6 2017-q2-update\\arm-none-eabi\\include
 966              		.file 10 "c:\\program files (x86)\\gnu tools arm embedded\\6 2017-q2-update\\arm-none-eabi\\includ
 967              		.file 11 "c:\\program files (x86)\\gnu tools arm embedded\\6 2017-q2-update\\arm-none-eabi\\includ
 968              		.file 12 "c:\\program files (x86)\\gnu tools arm embedded\\6 2017-q2-update\\arm-none-eabi\\includ
 969              		.file 13 "c:\\program files (x86)\\gnu tools arm embedded\\6 2017-q2-update\\arm-none-eabi\\includ
 970              		.file 14 "c:\\program files (x86)\\gnu tools arm embedded\\6 2017-q2-update\\arm-none-eabi\\includ
 971              		.file 15 "c:\\program files (x86)\\gnu tools arm embedded\\6 2017-q2-update\\arm-none-eabi\\includ
 972              		.file 16 "c:\\program files (x86)\\gnu tools arm embedded\\6 2017-q2-update\\lib\\gcc\\arm-none-ea
 973              		.file 17 "c:\\program files (x86)\\gnu tools arm embedded\\6 2017-q2-update\\arm-none-eabi\\includ
 974              		.file 18 "c:\\program files (x86)\\gnu tools arm embedded\\6 2017-q2-update\\arm-none-eabi\\includ
 975              		.file 19 "c:\\program files (x86)\\gnu tools arm embedded\\6 2017-q2-update\\arm-none-eabi\\includ
 976              		.file 20 "c:\\program files (x86)\\gnu tools arm embedded\\6 2017-q2-update\\arm-none-eabi\\includ
 977              		.file 21 "c:\\program files (x86)\\gnu tools arm embedded\\6 2017-q2-update\\lib\\gcc\\arm-none-ea
 978              		.file 22 "<built-in>"
 979              		.file 23 "c:\\program files (x86)\\gnu tools arm embedded\\6 2017-q2-update\\arm-none-eabi\\includ